(iclusterfk.Mantis
MantisTrail
p1
(dp2
S'states'
p3
(dp4
S'S9'
p5
(iclusterfk.Mantis
MantisState
p6
(dp7
S'_MantisState__iterindex'
p8
I0
sS'name'
p9
g5
sS'columnprobs'
p10
NsS'statenumbers'
p11
(lp12
I0
aI0
aI0
aI0
aI0
aI0
aI0
aI0
aI0
aI0
aI0
aI0
aI0
aI0
aI0
aI0
asS'state'
p13
(lp14
(lp15
(lp16
I10
aa(lp17
I0
aa(lp18
I0
aa(lp19
I0
aaa(lp20
(lp21
I10
aa(lp22
I0
aa(lp23
I0
aa(lp24
I0
aaa(lp25
(lp26
I0
aa(lp27
I0
aa(lp28
I0
aa(lp29
I0
aaa(lp30
(lp31
I0
aa(lp32
I0
aa(lp33
I0
aa(lp34
I0
aaasS'stateprobs'
p35
(lp36
(lp37
F0
aF0
aF0
aF0
aF0
aF0
aF0
aF0
aF0
aF0
aF1
aF0
aF0
aF0
aF0
aF0
aa(lp38
F1
aF0
aF0
aF0
aF0
aF0
aF0
aF0
aF0
aF0
aF0
aF0
aF0
aF0
aF0
aF0
aa(lp39
F1
aF0
aF0
aF0
aF0
aF0
aF0
aF0
aF0
aF0
aF0
aF0
aF0
aF0
aF0
aF0
aa(lp40
F1
aF0
aF0
aF0
aF0
aF0
aF0
aF0
aF0
aF0
aF0
aF0
aF0
aF0
aF0
aF0
aa(lp41
F0
aF0
aF0
aF0
aF0
aF0
aF0
aF0
aF0
aF0
aF1
aF0
aF0
aF0
aF0
aF0
aa(lp42
F1
aF0
aF0
aF0
aF0
aF0
aF0
aF0
aF0
aF0
aF0
aF0
aF0
aF0
aF0
aF0
aa(lp43
F1
aF0
aF0
aF0
aF0
aF0
aF0
aF0
aF0
aF0
aF0
aF0
aF0
aF0
aF0
aF0
aa(lp44
F1
aF0
aF0
aF0
aF0
aF0
aF0
aF0
aF0
aF0
aF0
aF0
aF0
aF0
aF0
aF0
aa(lp45
F1
aF0
aF0
aF0
aF0
aF0
aF0
aF0
aF0
aF0
aF0
aF0
aF0
aF0
aF0
aF0
aa(lp46
F1
aF0
aF0
aF0
aF0
aF0
aF0
aF0
aF0
aF0
aF0
aF0
aF0
aF0
aF0
aF0
aa(lp47
F1
aF0
aF0
aF0
aF0
aF0
aF0
aF0
aF0
aF0
aF0
aF0
aF0
aF0
aF0
aF0
aa(lp48
F1
aF0
aF0
aF0
aF0
aF0
aF0
aF0
aF0
aF0
aF0
aF0
aF0
aF0
aF0
aF0
aa(lp49
F1
aF0
aF0
aF0
aF0
aF0
aF0
aF0
aF0
aF0
aF0
aF0
aF0
aF0
aF0
aF0
aa(lp50
F1
aF0
aF0
aF0
aF0
aF0
aF0
aF0
aF0
aF0
aF0
aF0
aF0
aF0
aF0
aF0
aa(lp51
F1
aF0
aF0
aF0
aF0
aF0
aF0
aF0
aF0
aF0
aF0
aF0
aF0
aF0
aF0
aF0
aa(lp52
F1
aF0
aF0
aF0
aF0
aF0
aF0
aF0
aF0
aF0
aF0
aF0
aF0
aF0
aF0
aF0
aasbsS'S8'
p53
(iclusterfk.Mantis
MantisState
p54
(dp55
g8
I0
sg9
g53
sg10
Nsg11
(lp56
I0
aI0
aI0
aI0
aI0
aI0
aI0
aI0
aI0
aI0
aI0
aI0
aI0
aI0
aI0
aI0
asg13
(lp57
(lp58
(lp59
I0
aa(lp60
I0
aa(lp61
I0
aa(lp62
I0
aaa(lp63
(lp64
I0
aa(lp65
I0
aa(lp66
I0
aa(lp67
I0
aaa(lp68
(lp69
I0
aa(lp70
I0
aa(lp71
I0
aa(lp72
I0
aaa(lp73
(lp74
I0
aa(lp75
I0
aa(lp76
I0
aa(lp77
I0
aaasg35
(lp78
(lp79
F1
aF0
aF0
aF0
aF0
aF0
aF0
aF0
aF0
aF0
aF0
aF0
aF0
aF0
aF0
aF0
aa(lp80
F1
aF0
aF0
aF0
aF0
aF0
aF0
aF0
aF0
aF0
aF0
aF0
aF0
aF0
aF0
aF0
aa(lp81
F1
aF0
aF0
aF0
aF0
aF0
aF0
aF0
aF0
aF0
aF0
aF0
aF0
aF0
aF0
aF0
aa(lp82
F1
aF0
aF0
aF0
aF0
aF0
aF0
aF0
aF0
aF0
aF0
aF0
aF0
aF0
aF0
aF0
aa(lp83
F1
aF0
aF0
aF0
aF0
aF0
aF0
aF0
aF0
aF0
aF0
aF0
aF0
aF0
aF0
aF0
aa(lp84
F1
aF0
aF0
aF0
aF0
aF0
aF0
aF0
aF0
aF0
aF0
aF0
aF0
aF0
aF0
aF0
aa(lp85
F1
aF0
aF0
aF0
aF0
aF0
aF0
aF0
aF0
aF0
aF0
aF0
aF0
aF0
aF0
aF0
aa(lp86
F1
aF0
aF0
aF0
aF0
aF0
aF0
aF0
aF0
aF0
aF0
aF0
aF0
aF0
aF0
aF0
aa(lp87
F1
aF0
aF0
aF0
aF0
aF0
aF0
aF0
aF0
aF0
aF0
aF0
aF0
aF0
aF0
aF0
aa(lp88
F1
aF0
aF0
aF0
aF0
aF0
aF0
aF0
aF0
aF0
aF0
aF0
aF0
aF0
aF0
aF0
aa(lp89
F1
aF0
aF0
aF0
aF0
aF0
aF0
aF0
aF0
aF0
aF0
aF0
aF0
aF0
aF0
aF0
aa(lp90
F1
aF0
aF0
aF0
aF0
aF0
aF0
aF0
aF0
aF0
aF0
aF0
aF0
aF0
aF0
aF0
aa(lp91
F1
aF0
aF0
aF0
aF0
aF0
aF0
aF0
aF0
aF0
aF0
aF0
aF0
aF0
aF0
aF0
aa(lp92
F1
aF0
aF0
aF0
aF0
aF0
aF0
aF0
aF0
aF0
aF0
aF0
aF0
aF0
aF0
aF0
aa(lp93
F1
aF0
aF0
aF0
aF0
aF0
aF0
aF0
aF0
aF0
aF0
aF0
aF0
aF0
aF0
aF0
aa(lp94
F1
aF0
aF0
aF0
aF0
aF0
aF0
aF0
aF0
aF0
aF0
aF0
aF0
aF0
aF0
aF0
aasbsS'S3'
p95
(iclusterfk.Mantis
MantisState
p96
(dp97
g8
I0
sg9
g95
sg10
(dp98
(I0
I4
I8
I12
tp99
(dp100
(I10
I10
I0
I0
tp101
F1
ss(I3
I7
I11
I15
tp102
(dp103
(I0
I0
I0
I0
tp104
F1
ss(I1
I5
I9
I13
tp105
(dp106
(I0
I0
I0
I0
tp107
F1
ss(I2
I6
I10
I14
tp108
(dp109
(I0
I0
I0
I0
tp110
F1
sssg11
(lp111
I0
aI0
aI0
aI0
aI0
aI0
aI0
aI0
aI0
aI0
aI0
aI0
aI0
aI0
aI0
aI0
asg13
(lp112
(lp113
(lp114
I10
aa(lp115
I0
aa(lp116
I0
aa(lp117
I0
aaa(lp118
(lp119
I10
aa(lp120
I0
aa(lp121
I0
aa(lp122
I0
aaa(lp123
(lp124
I0
aa(lp125
I0
aa(lp126
I0
aa(lp127
I0
aaa(lp128
(lp129
I0
aa(lp130
I0
aa(lp131
I0
aa(lp132
I0
aaasg35
(lp133
(lp134
F0
aF0
aF0
aF0
aF0
aF0
aF0
aF0
aF0
aF0
aF1
aF0
aF0
aF0
aF0
aF0
aa(lp135
F1
aF0
aF0
aF0
aF0
aF0
aF0
aF0
aF0
aF0
aF0
aF0
aF0
aF0
aF0
aF0
aa(lp136
F1
aF0
aF0
aF0
aF0
aF0
aF0
aF0
aF0
aF0
aF0
aF0
aF0
aF0
aF0
aF0
aa(lp137
F1
aF0
aF0
aF0
aF0
aF0
aF0
aF0
aF0
aF0
aF0
aF0
aF0
aF0
aF0
aF0
aa(lp138
F0
aF0
aF0
aF0
aF0
aF0
aF0
aF0
aF0
aF0
aF1
aF0
aF0
aF0
aF0
aF0
aa(lp139
F1
aF0
aF0
aF0
aF0
aF0
aF0
aF0
aF0
aF0
aF0
aF0
aF0
aF0
aF0
aF0
aa(lp140
F1
aF0
aF0
aF0
aF0
aF0
aF0
aF0
aF0
aF0
aF0
aF0
aF0
aF0
aF0
aF0
aa(lp141
F1
aF0
aF0
aF0
aF0
aF0
aF0
aF0
aF0
aF0
aF0
aF0
aF0
aF0
aF0
aF0
aa(lp142
F1
aF0
aF0
aF0
aF0
aF0
aF0
aF0
aF0
aF0
aF0
aF0
aF0
aF0
aF0
aF0
aa(lp143
F1
aF0
aF0
aF0
aF0
aF0
aF0
aF0
aF0
aF0
aF0
aF0
aF0
aF0
aF0
aF0
aa(lp144
F1
aF0
aF0
aF0
aF0
aF0
aF0
aF0
aF0
aF0
aF0
aF0
aF0
aF0
aF0
aF0
aa(lp145
F1
aF0
aF0
aF0
aF0
aF0
aF0
aF0
aF0
aF0
aF0
aF0
aF0
aF0
aF0
aF0
aa(lp146
F1
aF0
aF0
aF0
aF0
aF0
aF0
aF0
aF0
aF0
aF0
aF0
aF0
aF0
aF0
aF0
aa(lp147
F1
aF0
aF0
aF0
aF0
aF0
aF0
aF0
aF0
aF0
aF0
aF0
aF0
aF0
aF0
aF0
aa(lp148
F1
aF0
aF0
aF0
aF0
aF0
aF0
aF0
aF0
aF0
aF0
aF0
aF0
aF0
aF0
aF0
aa(lp149
F1
aF0
aF0
aF0
aF0
aF0
aF0
aF0
aF0
aF0
aF0
aF0
aF0
aF0
aF0
aF0
aasbsS'S2'
p150
(iclusterfk.Mantis
MantisState
p151
(dp152
g8
I0
sg9
g150
sg10
(dp153
(I0
I4
I8
I12
tp154
(dp155
(I0
I0
I0
I0
tp156
F1
ss(I3
I7
I11
I15
tp157
(dp158
(I0
I0
I0
I0
tp159
F1
ss(I1
I5
I9
I13
tp160
(dp161
(I0
I0
I0
I0
tp162
F1
ss(I2
I6
I10
I14
tp163
(dp164
(I0
I15
I15
I0
tp165
F0.25148683092608326
s(I0
I5
I5
I0
tp166
F0.24553950722175022
s(I0
I10
I10
I0
tp167
F0.25148683092608326
s(I0
I13
I13
I0
tp168
F0.25148683092608326
sssg11
(lp169
I0
aI0
aI0
aI0
aI0
aI0
aI3
aI0
aI0
aI0
aI3
aI0
aI0
aI0
aI0
aI0
asg13
(lp170
(lp171
(lp172
I0
aa(lp173
I0
aa(lp174
I0
aa(lp175
I0
aaa(lp176
(lp177
I0
aa(lp178
I0
aa(lp179
I10
aI13
aI5
aI15
aa(lp180
I0
aaa(lp181
(lp182
I0
aa(lp183
I0
aa(lp184
I10
aI13
aI5
aI15
aa(lp185
I0
aaa(lp186
(lp187
I0
aa(lp188
I0
aa(lp189
I0
aa(lp190
I0
aaasg35
(lp191
(lp192
F1
aF0
aF0
aF0
aF0
aF0
aF0
aF0
aF0
aF0
aF0
aF0
aF0
aF0
aF0
aF0
aa(lp193
F1
aF0
aF0
aF0
aF0
aF0
aF0
aF0
aF0
aF0
aF0
aF0
aF0
aF0
aF0
aF0
aa(lp194
F1
aF0
aF0
aF0
aF0
aF0
aF0
aF0
aF0
aF0
aF0
aF0
aF0
aF0
aF0
aF0
aa(lp195
F1
aF0
aF0
aF0
aF0
aF0
aF0
aF0
aF0
aF0
aF0
aF0
aF0
aF0
aF0
aF0
aa(lp196
F1
aF0
aF0
aF0
aF0
aF0
aF0
aF0
aF0
aF0
aF0
aF0
aF0
aF0
aF0
aF0
aa(lp197
F1
aF0
aF0
aF0
aF0
aF0
aF0
aF0
aF0
aF0
aF0
aF0
aF0
aF0
aF0
aF0
aa(lp198
F0
aF0
aF0
aF0
aF0
aF0.24553950722175022
aF0
aF0
aF0
aF0
aF0.25148683092608326
aF0
aF0
aF0.25148683092608326
aF0
aF0.25148683092608326
aa(lp199
F1
aF0
aF0
aF0
aF0
aF0
aF0
aF0
aF0
aF0
aF0
aF0
aF0
aF0
aF0
aF0
aa(lp200
F1
aF0
aF0
aF0
aF0
aF0
aF0
aF0
aF0
aF0
aF0
aF0
aF0
aF0
aF0
aF0
aa(lp201
F1
aF0
aF0
aF0
aF0
aF0
aF0
aF0
aF0
aF0
aF0
aF0
aF0
aF0
aF0
aF0
aa(lp202
F0
aF0
aF0
aF0
aF0
aF0.24553950722175022
aF0
aF0
aF0
aF0
aF0.25148683092608326
aF0
aF0
aF0.25148683092608326
aF0
aF0.25148683092608326
aa(lp203
F1
aF0
aF0
aF0
aF0
aF0
aF0
aF0
aF0
aF0
aF0
aF0
aF0
aF0
aF0
aF0
aa(lp204
F1
aF0
aF0
aF0
aF0
aF0
aF0
aF0
aF0
aF0
aF0
aF0
aF0
aF0
aF0
aF0
aa(lp205
F1
aF0
aF0
aF0
aF0
aF0
aF0
aF0
aF0
aF0
aF0
aF0
aF0
aF0
aF0
aF0
aa(lp206
F1
aF0
aF0
aF0
aF0
aF0
aF0
aF0
aF0
aF0
aF0
aF0
aF0
aF0
aF0
aF0
aa(lp207
F1
aF0
aF0
aF0
aF0
aF0
aF0
aF0
aF0
aF0
aF0
aF0
aF0
aF0
aF0
aF0
aasbsS'S1'
p208
(iclusterfk.Mantis
MantisState
p209
(dp210
g8
I0
sg9
g208
sg10
(dp211
(I0
I4
I8
I12
tp212
(dp213
(I0
I0
I0
I11
tp214
F0.011560693641618497
s(I0
I0
I0
I14
tp215
F0.011560693641618497
s(I0
I0
I0
I5
tp216
F0.011560693641618497
s(I0
I0
I0
I10
tp217
F0.73988439306358378
s(I0
I0
I0
I1
tp218
F0.0014450867052023121
s(I0
I0
I0
I13
tp219
F0.011560693641618497
s(I0
I0
I0
I4
tp220
F0.0014450867052023121
s(I0
I0
I0
I9
tp221
F0.0014450867052023121
s(I0
I0
I0
I7
tp222
F0.092485549132947972
s(I0
I0
I0
I12
tp223
F0.0014450867052023121
s(I0
I0
I0
I3
tp224
F0.011560693641618497
s(I0
I0
I0
I15
tp225
F0.092485549132947972
s(I0
I0
I0
I6
tp226
F0.011560693641618497
ss(I3
I7
I11
I15
tp227
(dp228
(I10
I0
I0
I0
tp229
F1
ss(I1
I5
I9
I13
tp230
(dp231
(I0
I0
I0
I0
tp232
F1
ss(I2
I6
I10
I14
tp233
(dp234
(I13
I13
I0
I0
tp235
F0.045454545454545456
s(I15
I15
I0
I0
tp236
F0.18181818181818182
s(I5
I5
I0
I0
tp237
F0.045454545454545456
s(I10
I10
I0
I0
tp238
F0.72727272727272729
sssg11
(lp239
I0
aI0
aI2
aI0
aI0
aI0
aI2
aI0
aI0
aI0
aI0
aI0
aI1
aI0
aI0
aI0
asg13
(lp240
(lp241
(lp242
I0
aa(lp243
I0
aa(lp244
I10
aI13
aI5
aI15
aa(lp245
I10
aaa(lp246
(lp247
I0
aa(lp248
I0
aa(lp249
I10
aI13
aI5
aI15
aa(lp250
I0
aaa(lp251
(lp252
I0
aa(lp253
I0
aa(lp254
I0
aa(lp255
I0
aaa(lp256
(lp257
I1
aI3
aI4
aI5
aI6
aI7
aI9
aI10
aI11
aI12
aI13
aI14
aI15
aa(lp258
I0
aa(lp259
I0
aa(lp260
I0
aaasg35
(lp261
(lp262
F1
aF0
aF0
aF0
aF0
aF0
aF0
aF0
aF0
aF0
aF0
aF0
aF0
aF0
aF0
aF0
aa(lp263
F1
aF0
aF0
aF0
aF0
aF0
aF0
aF0
aF0
aF0
aF0
aF0
aF0
aF0
aF0
aF0
aa(lp264
F0
aF0
aF0
aF0
aF0
aF0.045454545454545456
aF0
aF0
aF0
aF0
aF0.72727272727272729
aF0
aF0
aF0.045454545454545456
aF0
aF0.18181818181818182
aa(lp265
F0
aF0
aF0
aF0
aF0
aF0
aF0
aF0
aF0
aF0
aF1
aF0
aF0
aF0
aF0
aF0
aa(lp266
F1
aF0
aF0
aF0
aF0
aF0
aF0
aF0
aF0
aF0
aF0
aF0
aF0
aF0
aF0
aF0
aa(lp267
F1
aF0
aF0
aF0
aF0
aF0
aF0
aF0
aF0
aF0
aF0
aF0
aF0
aF0
aF0
aF0
aa(lp268
F0
aF0
aF0
aF0
aF0
aF0.045454545454545456
aF0
aF0
aF0
aF0
aF0.72727272727272729
aF0
aF0
aF0.045454545454545456
aF0
aF0.18181818181818182
aa(lp269
F1
aF0
aF0
aF0
aF0
aF0
aF0
aF0
aF0
aF0
aF0
aF0
aF0
aF0
aF0
aF0
aa(lp270
F1
aF0
aF0
aF0
aF0
aF0
aF0
aF0
aF0
aF0
aF0
aF0
aF0
aF0
aF0
aF0
aa(lp271
F1
aF0
aF0
aF0
aF0
aF0
aF0
aF0
aF0
aF0
aF0
aF0
aF0
aF0
aF0
aF0
aa(lp272
F1
aF0
aF0
aF0
aF0
aF0
aF0
aF0
aF0
aF0
aF0
aF0
aF0
aF0
aF0
aF0
aa(lp273
F1
aF0
aF0
aF0
aF0
aF0
aF0
aF0
aF0
aF0
aF0
aF0
aF0
aF0
aF0
aF0
aa(lp274
F0
aF0.0014450867052023123
aF0
aF0.011560693641618498
aF0.0014450867052023123
aF0.011560693641618498
aF0.011560693641618498
aF0.092485549132947986
aF0
aF0.0014450867052023123
aF0.73988439306358389
aF0.011560693641618498
aF0.0014450867052023123
aF0.011560693641618498
aF0.011560693641618498
aF0.092485549132947986
aa(lp275
F1
aF0
aF0
aF0
aF0
aF0
aF0
aF0
aF0
aF0
aF0
aF0
aF0
aF0
aF0
aF0
aa(lp276
F1
aF0
aF0
aF0
aF0
aF0
aF0
aF0
aF0
aF0
aF0
aF0
aF0
aF0
aF0
aF0
aa(lp277
F1
aF0
aF0
aF0
aF0
aF0
aF0
aF0
aF0
aF0
aF0
aF0
aF0
aF0
aF0
aF0
aasbsS'S0'
p278
(iclusterfk.Mantis
MantisState
p279
(dp280
g8
I0
sg9
g278
sg10
(dp281
(I0
I4
I8
I12
tp282
(dp283
(I10
I0
I15
I13
tp284
F0.015625
s(I13
I0
I5
I13
tp285
F0.015625
s(I10
I0
I13
I13
tp286
F0.015625
s(I15
I0
I5
I15
tp287
F0.015625
s(I15
I0
I15
I10
tp288
F0.015625
s(I10
I0
I13
I10
tp289
F0.015625
s(I15
I0
I13
I10
tp290
F0.015625
s(I15
I0
I15
I5
tp291
F0.015625
s(I5
I0
I13
I10
tp292
F0.015625
s(I15
I0
I5
I5
tp293
F0.015625
s(I13
I0
I10
I10
tp294
F0.015625
s(I5
I0
I10
I5
tp295
F0.015625
s(I5
I0
I5
I13
tp296
F0.015625
s(I13
I0
I10
I15
tp297
F0.015625
s(I10
I0
I5
I13
tp298
F0.015625
s(I10
I0
I13
I15
tp299
F0.015625
s(I15
I0
I15
I13
tp300
F0.015625
s(I10
I0
I5
I10
tp301
F0.015625
s(I13
I0
I15
I10
tp302
F0.015625
s(I5
I0
I13
I5
tp303
F0.015625
s(I15
I0
I10
I13
tp304
F0.015625
s(I10
I0
I15
I15
tp305
F0.015625
s(I10
I0
I10
I13
tp306
F0.015625
s(I5
I0
I10
I13
tp307
F0.015625
s(I13
I0
I15
I13
tp308
F0.015625
s(I13
I0
I10
I5
tp309
F0.015625
s(I15
I0
I15
I15
tp310
F0.015625
s(I5
I0
I10
I10
tp311
F0.015625
s(I5
I0
I5
I10
tp312
F0.015625
s(I13
I0
I13
I13
tp313
F0.015625
s(I15
I0
I10
I5
tp314
F0.015625
s(I10
I0
I13
I5
tp315
F0.015625
s(I5
I0
I13
I13
tp316
F0.015625
s(I15
I0
I13
I5
tp317
F0.015625
s(I15
I0
I5
I10
tp318
F0.015625
s(I10
I0
I15
I5
tp319
F0.015625
s(I13
I0
I5
I5
tp320
F0.015625
s(I5
I0
I15
I15
tp321
F0.015625
s(I13
I0
I5
I10
tp322
F0.015625
s(I5
I0
I5
I5
tp323
F0.015625
s(I13
I0
I13
I15
tp324
F0.015625
s(I13
I0
I5
I15
tp325
F0.015625
s(I13
I0
I15
I15
tp326
F0.015625
s(I13
I0
I13
I10
tp327
F0.015625
s(I15
I0
I5
I13
tp328
F0.015625
s(I5
I0
I10
I15
tp329
F0.015625
s(I10
I0
I10
I15
tp330
F0.015625
s(I10
I0
I15
I10
tp331
F0.015625
s(I10
I0
I10
I10
tp332
F0.015625
s(I10
I0
I5
I5
tp333
F0.015625
s(I10
I0
I10
I5
tp334
F0.015625
s(I15
I0
I13
I13
tp335
F0.015625
s(I5
I0
I5
I15
tp336
F0.015625
s(I13
I0
I10
I13
tp337
F0.015625
s(I5
I0
I13
I15
tp338
F0.015625
s(I15
I0
I13
I15
tp339
F0.015625
s(I10
I0
I5
I15
tp340
F0.015625
s(I13
I0
I13
I5
tp341
F0.015625
s(I5
I0
I15
I13
tp342
F0.015625
s(I5
I0
I15
I10
tp343
F0.015625
s(I15
I0
I10
I10
tp344
F0.015625
s(I5
I0
I15
I5
tp345
F0.015625
s(I13
I0
I15
I5
tp346
F0.015625
s(I15
I0
I10
I15
tp347
F0.015625
ss(I3
I7
I11
I15
tp348
(dp349
(I0
I15
I0
I0
tp350
F0.25
s(I0
I10
I0
I0
tp351
F0.25
s(I0
I13
I0
I0
tp352
F0.25
s(I0
I5
I0
I0
tp353
F0.25
ss(I1
I5
I9
I13
tp354
(dp355
(I0
I15
I0
I0
tp356
F0.25
s(I0
I10
I0
I0
tp357
F0.25
s(I0
I13
I0
I0
tp358
F0.25
s(I0
I5
I0
I0
tp359
F0.25
ss(I2
I6
I10
I14
tp360
(dp361
(I0
I10
I5
I13
tp362
F0.015625
s(I0
I13
I15
I15
tp363
F0.015625
s(I0
I15
I15
I10
tp364
F0.015625
s(I0
I5
I15
I10
tp365
F0.015625
s(I0
I15
I15
I13
tp366
F0.015625
s(I0
I10
I15
I10
tp367
F0.015625
s(I0
I13
I5
I5
tp368
F0.015625
s(I0
I13
I5
I15
tp369
F0.015625
s(I0
I10
I13
I5
tp370
F0.015625
s(I0
I10
I13
I10
tp371
F0.015625
s(I0
I10
I13
I15
tp372
F0.015625
s(I0
I5
I15
I5
tp373
F0.015625
s(I0
I13
I13
I5
tp374
F0.015625
s(I0
I10
I10
I10
tp375
F0.015625
s(I0
I15
I10
I13
tp376
F0.015625
s(I0
I15
I5
I13
tp377
F0.015625
s(I0
I10
I10
I13
tp378
F0.015625
s(I0
I5
I13
I13
tp379
F0.015625
s(I0
I13
I15
I13
tp380
F0.015625
s(I0
I13
I10
I5
tp381
F0.015625
s(I0
I5
I5
I10
tp382
F0.015625
s(I0
I13
I10
I10
tp383
F0.015625
s(I0
I10
I15
I5
tp384
F0.015625
s(I0
I15
I15
I15
tp385
F0.015625
s(I0
I10
I5
I5
tp386
F0.015625
s(I0
I5
I15
I15
tp387
F0.015625
s(I0
I13
I10
I15
tp388
F0.015625
s(I0
I15
I13
I15
tp389
F0.015625
s(I0
I15
I5
I10
tp390
F0.015625
s(I0
I15
I15
I5
tp391
F0.015625
s(I0
I5
I13
I10
tp392
F0.015625
s(I0
I13
I13
I10
tp393
F0.015625
s(I0
I5
I13
I5
tp394
F0.015625
s(I0
I10
I13
I13
tp395
F0.015625
s(I0
I13
I13
I13
tp396
F0.015625
s(I0
I10
I5
I10
tp397
F0.015625
s(I0
I13
I15
I10
tp398
F0.015625
s(I0
I5
I5
I15
tp399
F0.015625
s(I0
I5
I5
I13
tp400
F0.015625
s(I0
I15
I13
I5
tp401
F0.015625
s(I0
I10
I5
I15
tp402
F0.015625
s(I0
I5
I5
I5
tp403
F0.015625
s(I0
I10
I10
I15
tp404
F0.015625
s(I0
I5
I10
I5
tp405
F0.015625
s(I0
I5
I10
I13
tp406
F0.015625
s(I0
I13
I5
I10
tp407
F0.015625
s(I0
I15
I5
I5
tp408
F0.015625
s(I0
I13
I5
I13
tp409
F0.015625
s(I0
I10
I10
I5
tp410
F0.015625
s(I0
I10
I15
I13
tp411
F0.015625
s(I0
I13
I13
I15
tp412
F0.015625
s(I0
I5
I15
I13
tp413
F0.015625
s(I0
I13
I10
I13
tp414
F0.015625
s(I0
I15
I10
I10
tp415
F0.015625
s(I0
I5
I10
I10
tp416
F0.015625
s(I0
I15
I13
I10
tp417
F0.015625
s(I0
I15
I13
I13
tp418
F0.015625
s(I0
I15
I10
I15
tp419
F0.015625
s(I0
I5
I10
I15
tp420
F0.015625
s(I0
I5
I13
I15
tp421
F0.015625
s(I0
I15
I10
I5
tp422
F0.015625
s(I0
I13
I15
I5
tp423
F0.015625
s(I0
I15
I5
I15
tp424
F0.015625
s(I0
I10
I15
I15
tp425
F0.015625
sssg11
(lp426
I0
aI0
aI0
aI0
aI0
aI0
aI0
aI0
aI0
aI0
aI0
aI0
aI0
aI0
aI0
aI0
asg13
(lp427
(lp428
(lp429
I10
aI13
aI5
aI15
aa(lp430
I0
aa(lp431
I0
aa(lp432
I0
aaa(lp433
(lp434
I0
aa(lp435
I10
aI13
aI5
aI15
aa(lp436
I10
aI13
aI5
aI15
aa(lp437
I10
aI13
aI5
aI15
aaa(lp438
(lp439
I10
aI13
aI5
aI15
aa(lp440
I0
aa(lp441
I10
aI15
aI5
aI13
aa(lp442
I0
aaa(lp443
(lp444
I10
aI13
aI5
aI15
aa(lp445
I0
aa(lp446
I10
aI13
aI5
aI15
aa(lp447
I0
aaasg35
(lp448
(lp449
F0
aF0
aF0
aF0
aF0
aF0.25
aF0
aF0
aF0
aF0
aF0.25
aF0
aF0
aF0.25
aF0
aF0.25
aa(lp450
F1
aF0
aF0
aF0
aF0
aF0
aF0
aF0
aF0
aF0
aF0
aF0
aF0
aF0
aF0
aF0
aa(lp451
F1
aF0
aF0
aF0
aF0
aF0
aF0
aF0
aF0
aF0
aF0
aF0
aF0
aF0
aF0
aF0
aa(lp452
F1
aF0
aF0
aF0
aF0
aF0
aF0
aF0
aF0
aF0
aF0
aF0
aF0
aF0
aF0
aF0
aa(lp453
F1
aF0
aF0
aF0
aF0
aF0
aF0
aF0
aF0
aF0
aF0
aF0
aF0
aF0
aF0
aF0
aa(lp454
F0
aF0
aF0
aF0
aF0
aF0.25
aF0
aF0
aF0
aF0
aF0.25
aF0
aF0
aF0.25
aF0
aF0.25
aa(lp455
F0
aF0
aF0
aF0
aF0
aF0.25
aF0
aF0
aF0
aF0
aF0.25
aF0
aF0
aF0.25
aF0
aF0.25
aa(lp456
F0
aF0
aF0
aF0
aF0
aF0.25
aF0
aF0
aF0
aF0
aF0.25
aF0
aF0
aF0.25
aF0
aF0.25
aa(lp457
F0
aF0
aF0
aF0
aF0
aF0.25
aF0
aF0
aF0
aF0
aF0.25
aF0
aF0
aF0.25
aF0
aF0.25
aa(lp458
F1
aF0
aF0
aF0
aF0
aF0
aF0
aF0
aF0
aF0
aF0
aF0
aF0
aF0
aF0
aF0
aa(lp459
F0
aF0
aF0
aF0
aF0
aF0.25
aF0
aF0
aF0
aF0
aF0.25
aF0
aF0
aF0.25
aF0
aF0.25
aa(lp460
F1
aF0
aF0
aF0
aF0
aF0
aF0
aF0
aF0
aF0
aF0
aF0
aF0
aF0
aF0
aF0
aa(lp461
F0
aF0
aF0
aF0
aF0
aF0.25
aF0
aF0
aF0
aF0
aF0.25
aF0
aF0
aF0.25
aF0
aF0.25
aa(lp462
F1
aF0
aF0
aF0
aF0
aF0
aF0
aF0
aF0
aF0
aF0
aF0
aF0
aF0
aF0
aF0
aa(lp463
F0
aF0
aF0
aF0
aF0
aF0.25
aF0
aF0
aF0
aF0
aF0.25
aF0
aF0
aF0.25
aF0
aF0.25
aa(lp464
F1
aF0
aF0
aF0
aF0
aF0
aF0
aF0
aF0
aF0
aF0
aF0
aF0
aF0
aF0
aF0
aasbsS'S7'
p465
(iclusterfk.Mantis
MantisState
p466
(dp467
g8
I0
sg9
g465
sg10
Nsg11
(lp468
I0
aI0
aI0
aI0
aI0
aI0
aI0
aI0
aI0
aI0
aI0
aI0
aI0
aI0
aI0
aI0
asg13
(lp469
(lp470
(lp471
I0
aa(lp472
I10
aa(lp473
I0
aa(lp474
I0
aaa(lp475
(lp476
I0
aa(lp477
I0
aa(lp478
I0
aa(lp479
I0
aaa(lp480
(lp481
I0
aa(lp482
I0
aa(lp483
I0
aa(lp484
I0
aaa(lp485
(lp486
I0
aa(lp487
I10
aa(lp488
I0
aa(lp489
I0
aaasg35
(lp490
(lp491
F1
aF0
aF0
aF0
aF0
aF0
aF0
aF0
aF0
aF0
aF0
aF0
aF0
aF0
aF0
aF0
aa(lp492
F0
aF0
aF0
aF0
aF0
aF0
aF0
aF0
aF0
aF0
aF1
aF0
aF0
aF0
aF0
aF0
aa(lp493
F1
aF0
aF0
aF0
aF0
aF0
aF0
aF0
aF0
aF0
aF0
aF0
aF0
aF0
aF0
aF0
aa(lp494
F1
aF0
aF0
aF0
aF0
aF0
aF0
aF0
aF0
aF0
aF0
aF0
aF0
aF0
aF0
aF0
aa(lp495
F1
aF0
aF0
aF0
aF0
aF0
aF0
aF0
aF0
aF0
aF0
aF0
aF0
aF0
aF0
aF0
aa(lp496
F1
aF0
aF0
aF0
aF0
aF0
aF0
aF0
aF0
aF0
aF0
aF0
aF0
aF0
aF0
aF0
aa(lp497
F1
aF0
aF0
aF0
aF0
aF0
aF0
aF0
aF0
aF0
aF0
aF0
aF0
aF0
aF0
aF0
aa(lp498
F1
aF0
aF0
aF0
aF0
aF0
aF0
aF0
aF0
aF0
aF0
aF0
aF0
aF0
aF0
aF0
aa(lp499
F1
aF0
aF0
aF0
aF0
aF0
aF0
aF0
aF0
aF0
aF0
aF0
aF0
aF0
aF0
aF0
aa(lp500
F1
aF0
aF0
aF0
aF0
aF0
aF0
aF0
aF0
aF0
aF0
aF0
aF0
aF0
aF0
aF0
aa(lp501
F1
aF0
aF0
aF0
aF0
aF0
aF0
aF0
aF0
aF0
aF0
aF0
aF0
aF0
aF0
aF0
aa(lp502
F1
aF0
aF0
aF0
aF0
aF0
aF0
aF0
aF0
aF0
aF0
aF0
aF0
aF0
aF0
aF0
aa(lp503
F1
aF0
aF0
aF0
aF0
aF0
aF0
aF0
aF0
aF0
aF0
aF0
aF0
aF0
aF0
aF0
aa(lp504
F0
aF0
aF0
aF0
aF0
aF0
aF0
aF0
aF0
aF0
aF1
aF0
aF0
aF0
aF0
aF0
aa(lp505
F1
aF0
aF0
aF0
aF0
aF0
aF0
aF0
aF0
aF0
aF0
aF0
aF0
aF0
aF0
aF0
aa(lp506
F1
aF0
aF0
aF0
aF0
aF0
aF0
aF0
aF0
aF0
aF0
aF0
aF0
aF0
aF0
aF0
aasbsS'S5'
p507
(iclusterfk.Mantis
MantisState
p508
(dp509
g8
I0
sg9
g507
sg10
(dp510
(I0
I4
I8
I12
tp511
(dp512
(I0
I0
I0
I0
tp513
F1
ss(I3
I7
I11
I15
tp514
(dp515
(I0
I0
I0
I0
tp516
F1
ss(I1
I5
I9
I13
tp517
(dp518
(I10
I0
I0
I10
tp519
F1
ss(I2
I6
I10
I14
tp520
(dp521
(I0
I0
I0
I0
tp522
F1
sssg11
(lp523
I0
aI0
aI0
aI0
aI0
aI0
aI0
aI0
aI0
aI0
aI0
aI0
aI0
aI0
aI0
aI0
asg13
(lp524
(lp525
(lp526
I0
aa(lp527
I10
aa(lp528
I0
aa(lp529
I0
aaa(lp530
(lp531
I0
aa(lp532
I0
aa(lp533
I0
aa(lp534
I0
aaa(lp535
(lp536
I0
aa(lp537
I0
aa(lp538
I0
aa(lp539
I0
aaa(lp540
(lp541
I0
aa(lp542
I10
aa(lp543
I0
aa(lp544
I0
aaasg35
(lp545
(lp546
F1
aF0
aF0
aF0
aF0
aF0
aF0
aF0
aF0
aF0
aF0
aF0
aF0
aF0
aF0
aF0
aa(lp547
F0
aF0
aF0
aF0
aF0
aF0
aF0
aF0
aF0
aF0
aF1
aF0
aF0
aF0
aF0
aF0
aa(lp548
F1
aF0
aF0
aF0
aF0
aF0
aF0
aF0
aF0
aF0
aF0
aF0
aF0
aF0
aF0
aF0
aa(lp549
F1
aF0
aF0
aF0
aF0
aF0
aF0
aF0
aF0
aF0
aF0
aF0
aF0
aF0
aF0
aF0
aa(lp550
F1
aF0
aF0
aF0
aF0
aF0
aF0
aF0
aF0
aF0
aF0
aF0
aF0
aF0
aF0
aF0
aa(lp551
F1
aF0
aF0
aF0
aF0
aF0
aF0
aF0
aF0
aF0
aF0
aF0
aF0
aF0
aF0
aF0
aa(lp552
F1
aF0
aF0
aF0
aF0
aF0
aF0
aF0
aF0
aF0
aF0
aF0
aF0
aF0
aF0
aF0
aa(lp553
F1
aF0
aF0
aF0
aF0
aF0
aF0
aF0
aF0
aF0
aF0
aF0
aF0
aF0
aF0
aF0
aa(lp554
F1
aF0
aF0
aF0
aF0
aF0
aF0
aF0
aF0
aF0
aF0
aF0
aF0
aF0
aF0
aF0
aa(lp555
F1
aF0
aF0
aF0
aF0
aF0
aF0
aF0
aF0
aF0
aF0
aF0
aF0
aF0
aF0
aF0
aa(lp556
F1
aF0
aF0
aF0
aF0
aF0
aF0
aF0
aF0
aF0
aF0
aF0
aF0
aF0
aF0
aF0
aa(lp557
F1
aF0
aF0
aF0
aF0
aF0
aF0
aF0
aF0
aF0
aF0
aF0
aF0
aF0
aF0
aF0
aa(lp558
F1
aF0
aF0
aF0
aF0
aF0
aF0
aF0
aF0
aF0
aF0
aF0
aF0
aF0
aF0
aF0
aa(lp559
F0
aF0
aF0
aF0
aF0
aF0
aF0
aF0
aF0
aF0
aF1
aF0
aF0
aF0
aF0
aF0
aa(lp560
F1
aF0
aF0
aF0
aF0
aF0
aF0
aF0
aF0
aF0
aF0
aF0
aF0
aF0
aF0
aF0
aa(lp561
F1
aF0
aF0
aF0
aF0
aF0
aF0
aF0
aF0
aF0
aF0
aF0
aF0
aF0
aF0
aF0
aasbsS'S4'
p562
(iclusterfk.Mantis
MantisState
p563
(dp564
g8
I0
sg9
g562
sg10
(dp565
(I0
I4
I8
I12
tp566
(dp567
(I0
I0
I0
I0
tp568
F1
ss(I3
I7
I11
I15
tp569
(dp570
(I0
I0
I0
I0
tp571
F1
ss(I1
I5
I9
I13
tp572
(dp573
(I0
I0
I0
I0
tp574
F1
ss(I2
I6
I10
I14
tp575
(dp576
(I0
I0
I0
I0
tp577
F1
sssg11
(lp578
I0
aI0
aI0
aI0
aI0
aI0
aI0
aI0
aI0
aI0
aI0
aI0
aI0
aI0
aI0
aI0
asg13
(lp579
(lp580
(lp581
I0
aa(lp582
I0
aa(lp583
I0
aa(lp584
I0
aaa(lp585
(lp586
I0
aa(lp587
I0
aa(lp588
I0
aa(lp589
I0
aaa(lp590
(lp591
I0
aa(lp592
I0
aa(lp593
I0
aa(lp594
I0
aaa(lp595
(lp596
I0
aa(lp597
I0
aa(lp598
I0
aa(lp599
I0
aaasg35
(lp600
(lp601
F1
aF0
aF0
aF0
aF0
aF0
aF0
aF0
aF0
aF0
aF0
aF0
aF0
aF0
aF0
aF0
aa(lp602
F1
aF0
aF0
aF0
aF0
aF0
aF0
aF0
aF0
aF0
aF0
aF0
aF0
aF0
aF0
aF0
aa(lp603
F1
aF0
aF0
aF0
aF0
aF0
aF0
aF0
aF0
aF0
aF0
aF0
aF0
aF0
aF0
aF0
aa(lp604
F1
aF0
aF0
aF0
aF0
aF0
aF0
aF0
aF0
aF0
aF0
aF0
aF0
aF0
aF0
aF0
aa(lp605
F1
aF0
aF0
aF0
aF0
aF0
aF0
aF0
aF0
aF0
aF0
aF0
aF0
aF0
aF0
aF0
aa(lp606
F1
aF0
aF0
aF0
aF0
aF0
aF0
aF0
aF0
aF0
aF0
aF0
aF0
aF0
aF0
aF0
aa(lp607
F1
aF0
aF0
aF0
aF0
aF0
aF0
aF0
aF0
aF0
aF0
aF0
aF0
aF0
aF0
aF0
aa(lp608
F1
aF0
aF0
aF0
aF0
aF0
aF0
aF0
aF0
aF0
aF0
aF0
aF0
aF0
aF0
aF0
aa(lp609
F1
aF0
aF0
aF0
aF0
aF0
aF0
aF0
aF0
aF0
aF0
aF0
aF0
aF0
aF0
aF0
aa(lp610
F1
aF0
aF0
aF0
aF0
aF0
aF0
aF0
aF0
aF0
aF0
aF0
aF0
aF0
aF0
aF0
aa(lp611
F1
aF0
aF0
aF0
aF0
aF0
aF0
aF0
aF0
aF0
aF0
aF0
aF0
aF0
aF0
aF0
aa(lp612
F1
aF0
aF0
aF0
aF0
aF0
aF0
aF0
aF0
aF0
aF0
aF0
aF0
aF0
aF0
aF0
aa(lp613
F1
aF0
aF0
aF0
aF0
aF0
aF0
aF0
aF0
aF0
aF0
aF0
aF0
aF0
aF0
aF0
aa(lp614
F1
aF0
aF0
aF0
aF0
aF0
aF0
aF0
aF0
aF0
aF0
aF0
aF0
aF0
aF0
aF0
aa(lp615
F1
aF0
aF0
aF0
aF0
aF0
aF0
aF0
aF0
aF0
aF0
aF0
aF0
aF0
aF0
aF0
aa(lp616
F1
aF0
aF0
aF0
aF0
aF0
aF0
aF0
aF0
aF0
aF0
aF0
aF0
aF0
aF0
aF0
aasbsS'M5'
p617
(iclusterfk.Mantis
MantisState
p618
(dp619
g8
I0
sg9
g617
sg10
Nsg11
(lp620
I0
aI0
aI0
aI0
aI0
aI0
aI0
aI0
aI0
aI0
aI0
aI0
aI0
aI0
aI0
aI0
asg13
(lp621
(lp622
(lp623
I0
aa(lp624
I10
aa(lp625
I0
aa(lp626
I0
aaa(lp627
(lp628
I0
aa(lp629
I0
aa(lp630
I0
aa(lp631
I0
aaa(lp632
(lp633
I0
aa(lp634
I0
aa(lp635
I0
aa(lp636
I0
aaa(lp637
(lp638
I0
aa(lp639
I10
aa(lp640
I0
aa(lp641
I0
aaasg35
(lp642
(lp643
F1
aF0
aF0
aF0
aF0
aF0
aF0
aF0
aF0
aF0
aF0
aF0
aF0
aF0
aF0
aF0
aa(lp644
F0
aF0
aF0
aF0
aF0
aF0
aF0
aF0
aF0
aF0
aF1
aF0
aF0
aF0
aF0
aF0
aa(lp645
F1
aF0
aF0
aF0
aF0
aF0
aF0
aF0
aF0
aF0
aF0
aF0
aF0
aF0
aF0
aF0
aa(lp646
F1
aF0
aF0
aF0
aF0
aF0
aF0
aF0
aF0
aF0
aF0
aF0
aF0
aF0
aF0
aF0
aa(lp647
F1
aF0
aF0
aF0
aF0
aF0
aF0
aF0
aF0
aF0
aF0
aF0
aF0
aF0
aF0
aF0
aa(lp648
F1
aF0
aF0
aF0
aF0
aF0
aF0
aF0
aF0
aF0
aF0
aF0
aF0
aF0
aF0
aF0
aa(lp649
F1
aF0
aF0
aF0
aF0
aF0
aF0
aF0
aF0
aF0
aF0
aF0
aF0
aF0
aF0
aF0
aa(lp650
F1
aF0
aF0
aF0
aF0
aF0
aF0
aF0
aF0
aF0
aF0
aF0
aF0
aF0
aF0
aF0
aa(lp651
F1
aF0
aF0
aF0
aF0
aF0
aF0
aF0
aF0
aF0
aF0
aF0
aF0
aF0
aF0
aF0
aa(lp652
F1
aF0
aF0
aF0
aF0
aF0
aF0
aF0
aF0
aF0
aF0
aF0
aF0
aF0
aF0
aF0
aa(lp653
F1
aF0
aF0
aF0
aF0
aF0
aF0
aF0
aF0
aF0
aF0
aF0
aF0
aF0
aF0
aF0
aa(lp654
F1
aF0
aF0
aF0
aF0
aF0
aF0
aF0
aF0
aF0
aF0
aF0
aF0
aF0
aF0
aF0
aa(lp655
F1
aF0
aF0
aF0
aF0
aF0
aF0
aF0
aF0
aF0
aF0
aF0
aF0
aF0
aF0
aF0
aa(lp656
F0
aF0
aF0
aF0
aF0
aF0
aF0
aF0
aF0
aF0
aF1
aF0
aF0
aF0
aF0
aF0
aa(lp657
F1
aF0
aF0
aF0
aF0
aF0
aF0
aF0
aF0
aF0
aF0
aF0
aF0
aF0
aF0
aF0
aa(lp658
F1
aF0
aF0
aF0
aF0
aF0
aF0
aF0
aF0
aF0
aF0
aF0
aF0
aF0
aF0
aF0
aasbsS'M4'
p659
(iclusterfk.Mantis
MantisState
p660
(dp661
g8
I0
sg9
g659
sg10
Nsg11
(lp662
I0
aI0
aI0
aI0
aI0
aI0
aI0
aI0
aI0
aI0
aI0
aI0
aI0
aI0
aI0
aI0
asg13
(lp663
(lp664
(lp665
I0
aa(lp666
I0
aa(lp667
I0
aa(lp668
I0
aaa(lp669
(lp670
I0
aa(lp671
I0
aa(lp672
I0
aa(lp673
I0
aaa(lp674
(lp675
I0
aa(lp676
I0
aa(lp677
I0
aa(lp678
I0
aaa(lp679
(lp680
I0
aa(lp681
I0
aa(lp682
I0
aa(lp683
I0
aaasg35
(lp684
(lp685
F1
aF0
aF0
aF0
aF0
aF0
aF0
aF0
aF0
aF0
aF0
aF0
aF0
aF0
aF0
aF0
aa(lp686
F1
aF0
aF0
aF0
aF0
aF0
aF0
aF0
aF0
aF0
aF0
aF0
aF0
aF0
aF0
aF0
aa(lp687
F1
aF0
aF0
aF0
aF0
aF0
aF0
aF0
aF0
aF0
aF0
aF0
aF0
aF0
aF0
aF0
aa(lp688
F1
aF0
aF0
aF0
aF0
aF0
aF0
aF0
aF0
aF0
aF0
aF0
aF0
aF0
aF0
aF0
aa(lp689
F1
aF0
aF0
aF0
aF0
aF0
aF0
aF0
aF0
aF0
aF0
aF0
aF0
aF0
aF0
aF0
aa(lp690
F1
aF0
aF0
aF0
aF0
aF0
aF0
aF0
aF0
aF0
aF0
aF0
aF0
aF0
aF0
aF0
aa(lp691
F1
aF0
aF0
aF0
aF0
aF0
aF0
aF0
aF0
aF0
aF0
aF0
aF0
aF0
aF0
aF0
aa(lp692
F1
aF0
aF0
aF0
aF0
aF0
aF0
aF0
aF0
aF0
aF0
aF0
aF0
aF0
aF0
aF0
aa(lp693
F1
aF0
aF0
aF0
aF0
aF0
aF0
aF0
aF0
aF0
aF0
aF0
aF0
aF0
aF0
aF0
aa(lp694
F1
aF0
aF0
aF0
aF0
aF0
aF0
aF0
aF0
aF0
aF0
aF0
aF0
aF0
aF0
aF0
aa(lp695
F1
aF0
aF0
aF0
aF0
aF0
aF0
aF0
aF0
aF0
aF0
aF0
aF0
aF0
aF0
aF0
aa(lp696
F1
aF0
aF0
aF0
aF0
aF0
aF0
aF0
aF0
aF0
aF0
aF0
aF0
aF0
aF0
aF0
aa(lp697
F1
aF0
aF0
aF0
aF0
aF0
aF0
aF0
aF0
aF0
aF0
aF0
aF0
aF0
aF0
aF0
aa(lp698
F1
aF0
aF0
aF0
aF0
aF0
aF0
aF0
aF0
aF0
aF0
aF0
aF0
aF0
aF0
aF0
aa(lp699
F1
aF0
aF0
aF0
aF0
aF0
aF0
aF0
aF0
aF0
aF0
aF0
aF0
aF0
aF0
aF0
aa(lp700
F1
aF0
aF0
aF0
aF0
aF0
aF0
aF0
aF0
aF0
aF0
aF0
aF0
aF0
aF0
aF0
aasbsS'M7'
p701
(iclusterfk.Mantis
MantisState
p702
(dp703
g8
I0
sg9
g701
sg10
(dp704
(I0
I4
I8
I12
tp705
(dp706
(I0
I0
I0
I0
tp707
F1
ss(I3
I7
I11
I15
tp708
(dp709
(I0
I0
I0
I0
tp710
F1
ss(I1
I5
I9
I13
tp711
(dp712
(I10
I0
I0
I10
tp713
F1
ss(I2
I6
I10
I14
tp714
(dp715
(I0
I0
I0
I0
tp716
F1
sssg11
(lp717
I0
aI0
aI0
aI0
aI0
aI0
aI0
aI0
aI0
aI0
aI0
aI0
aI0
aI0
aI0
aI0
asg13
(lp718
(lp719
(lp720
I0
aa(lp721
I10
aa(lp722
I0
aa(lp723
I0
aaa(lp724
(lp725
I0
aa(lp726
I0
aa(lp727
I0
aa(lp728
I0
aaa(lp729
(lp730
I0
aa(lp731
I0
aa(lp732
I0
aa(lp733
I0
aaa(lp734
(lp735
I0
aa(lp736
I10
aa(lp737
I0
aa(lp738
I0
aaasg35
(lp739
(lp740
F1
aF0
aF0
aF0
aF0
aF0
aF0
aF0
aF0
aF0
aF0
aF0
aF0
aF0
aF0
aF0
aa(lp741
F0
aF0
aF0
aF0
aF0
aF0
aF0
aF0
aF0
aF0
aF1
aF0
aF0
aF0
aF0
aF0
aa(lp742
F1
aF0
aF0
aF0
aF0
aF0
aF0
aF0
aF0
aF0
aF0
aF0
aF0
aF0
aF0
aF0
aa(lp743
F1
aF0
aF0
aF0
aF0
aF0
aF0
aF0
aF0
aF0
aF0
aF0
aF0
aF0
aF0
aF0
aa(lp744
F1
aF0
aF0
aF0
aF0
aF0
aF0
aF0
aF0
aF0
aF0
aF0
aF0
aF0
aF0
aF0
aa(lp745
F1
aF0
aF0
aF0
aF0
aF0
aF0
aF0
aF0
aF0
aF0
aF0
aF0
aF0
aF0
aF0
aa(lp746
F1
aF0
aF0
aF0
aF0
aF0
aF0
aF0
aF0
aF0
aF0
aF0
aF0
aF0
aF0
aF0
aa(lp747
F1
aF0
aF0
aF0
aF0
aF0
aF0
aF0
aF0
aF0
aF0
aF0
aF0
aF0
aF0
aF0
aa(lp748
F1
aF0
aF0
aF0
aF0
aF0
aF0
aF0
aF0
aF0
aF0
aF0
aF0
aF0
aF0
aF0
aa(lp749
F1
aF0
aF0
aF0
aF0
aF0
aF0
aF0
aF0
aF0
aF0
aF0
aF0
aF0
aF0
aF0
aa(lp750
F1
aF0
aF0
aF0
aF0
aF0
aF0
aF0
aF0
aF0
aF0
aF0
aF0
aF0
aF0
aF0
aa(lp751
F1
aF0
aF0
aF0
aF0
aF0
aF0
aF0
aF0
aF0
aF0
aF0
aF0
aF0
aF0
aF0
aa(lp752
F1
aF0
aF0
aF0
aF0
aF0
aF0
aF0
aF0
aF0
aF0
aF0
aF0
aF0
aF0
aF0
aa(lp753
F0
aF0
aF0
aF0
aF0
aF0
aF0
aF0
aF0
aF0
aF1
aF0
aF0
aF0
aF0
aF0
aa(lp754
F1
aF0
aF0
aF0
aF0
aF0
aF0
aF0
aF0
aF0
aF0
aF0
aF0
aF0
aF0
aF0
aa(lp755
F1
aF0
aF0
aF0
aF0
aF0
aF0
aF0
aF0
aF0
aF0
aF0
aF0
aF0
aF0
aF0
aasbsS'M1'
p756
(iclusterfk.Mantis
MantisState
p757
(dp758
g8
I0
sg9
g756
sg10
Nsg11
(lp759
I1
aI0
aI2
aI0
aI1
aI0
aI2
aI0
aI1
aI0
aI0
aI0
aI0
aI0
aI0
aI0
asg13
(lp760
(lp761
(lp762
I1
aI3
aI4
aI5
aI6
aI7
aI9
aI10
aI11
aI12
aI13
aI14
aI15
aa(lp763
I0
aa(lp764
I10
aI13
aI5
aI15
aa(lp765
I0
aaa(lp766
(lp767
I1
aI3
aI4
aI5
aI6
aI7
aI9
aI10
aI11
aI12
aI13
aI14
aI15
aa(lp768
I0
aa(lp769
I10
aI13
aI5
aI15
aa(lp770
I10
aaa(lp771
(lp772
I1
aI3
aI4
aI5
aI6
aI7
aI9
aI10
aI11
aI12
aI13
aI14
aI15
aa(lp773
I0
aa(lp774
I0
aa(lp775
I10
aaa(lp776
(lp777
I0
aa(lp778
I0
aa(lp779
I0
aa(lp780
I10
aaasg35
(lp781
(lp782
F0
aF0.03125
aF0
aF0.0625
aF0.03125
aF0.0625
aF0.0625
aF0.125
aF0
aF0.03125
aF0.25
aF0.0625
aF0.03125
aF0.0625
aF0.0625
aF0.125
aa(lp783
F1
aF0
aF0
aF0
aF0
aF0
aF0
aF0
aF0
aF0
aF0
aF0
aF0
aF0
aF0
aF0
aa(lp784
F0
aF0
aF0
aF0
aF0
aF0.125
aF0
aF0
aF0
aF0
aF0.5
aF0
aF0
aF0.125
aF0
aF0.25
aa(lp785
F1
aF0
aF0
aF0
aF0
aF0
aF0
aF0
aF0
aF0
aF0
aF0
aF0
aF0
aF0
aF0
aa(lp786
F0
aF0.03125
aF0
aF0.0625
aF0.03125
aF0.0625
aF0.0625
aF0.125
aF0
aF0.03125
aF0.25
aF0.0625
aF0.03125
aF0.0625
aF0.0625
aF0.125
aa(lp787
F1
aF0
aF0
aF0
aF0
aF0
aF0
aF0
aF0
aF0
aF0
aF0
aF0
aF0
aF0
aF0
aa(lp788
F0
aF0
aF0
aF0
aF0
aF0.125
aF0
aF0
aF0
aF0
aF0.5
aF0
aF0
aF0.125
aF0
aF0.25
aa(lp789
F0
aF0
aF0
aF0
aF0
aF0
aF0
aF0
aF0
aF0
aF1
aF0
aF0
aF0
aF0
aF0
aa(lp790
F0
aF0.03125
aF0
aF0.0625
aF0.03125
aF0.0625
aF0.0625
aF0.125
aF0
aF0.03125
aF0.25
aF0.0625
aF0.03125
aF0.0625
aF0.0625
aF0.125
aa(lp791
F1
aF0
aF0
aF0
aF0
aF0
aF0
aF0
aF0
aF0
aF0
aF0
aF0
aF0
aF0
aF0
aa(lp792
F1
aF0
aF0
aF0
aF0
aF0
aF0
aF0
aF0
aF0
aF0
aF0
aF0
aF0
aF0
aF0
aa(lp793
F0
aF0
aF0
aF0
aF0
aF0
aF0
aF0
aF0
aF0
aF1
aF0
aF0
aF0
aF0
aF0
aa(lp794
F1
aF0
aF0
aF0
aF0
aF0
aF0
aF0
aF0
aF0
aF0
aF0
aF0
aF0
aF0
aF0
aa(lp795
F1
aF0
aF0
aF0
aF0
aF0
aF0
aF0
aF0
aF0
aF0
aF0
aF0
aF0
aF0
aF0
aa(lp796
F1
aF0
aF0
aF0
aF0
aF0
aF0
aF0
aF0
aF0
aF0
aF0
aF0
aF0
aF0
aF0
aa(lp797
F0
aF0
aF0
aF0
aF0
aF0
aF0
aF0
aF0
aF0
aF1
aF0
aF0
aF0
aF0
aF0
aasbsS'M3'
p798
(iclusterfk.Mantis
MantisState
p799
(dp800
g8
I0
sg9
g798
sg10
Nsg11
(lp801
I0
aI0
aI0
aI0
aI0
aI0
aI0
aI0
aI0
aI0
aI0
aI0
aI0
aI0
aI0
aI0
asg13
(lp802
(lp803
(lp804
I10
aa(lp805
I0
aa(lp806
I0
aa(lp807
I0
aaa(lp808
(lp809
I10
aa(lp810
I0
aa(lp811
I0
aa(lp812
I0
aaa(lp813
(lp814
I0
aa(lp815
I0
aa(lp816
I0
aa(lp817
I0
aaa(lp818
(lp819
I0
aa(lp820
I0
aa(lp821
I0
aa(lp822
I0
aaasg35
(lp823
(lp824
F0
aF0
aF0
aF0
aF0
aF0
aF0
aF0
aF0
aF0
aF1
aF0
aF0
aF0
aF0
aF0
aa(lp825
F1
aF0
aF0
aF0
aF0
aF0
aF0
aF0
aF0
aF0
aF0
aF0
aF0
aF0
aF0
aF0
aa(lp826
F1
aF0
aF0
aF0
aF0
aF0
aF0
aF0
aF0
aF0
aF0
aF0
aF0
aF0
aF0
aF0
aa(lp827
F1
aF0
aF0
aF0
aF0
aF0
aF0
aF0
aF0
aF0
aF0
aF0
aF0
aF0
aF0
aF0
aa(lp828
F0
aF0
aF0
aF0
aF0
aF0
aF0
aF0
aF0
aF0
aF1
aF0
aF0
aF0
aF0
aF0
aa(lp829
F1
aF0
aF0
aF0
aF0
aF0
aF0
aF0
aF0
aF0
aF0
aF0
aF0
aF0
aF0
aF0
aa(lp830
F1
aF0
aF0
aF0
aF0
aF0
aF0
aF0
aF0
aF0
aF0
aF0
aF0
aF0
aF0
aF0
aa(lp831
F1
aF0
aF0
aF0
aF0
aF0
aF0
aF0
aF0
aF0
aF0
aF0
aF0
aF0
aF0
aF0
aa(lp832
F1
aF0
aF0
aF0
aF0
aF0
aF0
aF0
aF0
aF0
aF0
aF0
aF0
aF0
aF0
aF0
aa(lp833
F1
aF0
aF0
aF0
aF0
aF0
aF0
aF0
aF0
aF0
aF0
aF0
aF0
aF0
aF0
aF0
aa(lp834
F1
aF0
aF0
aF0
aF0
aF0
aF0
aF0
aF0
aF0
aF0
aF0
aF0
aF0
aF0
aF0
aa(lp835
F1
aF0
aF0
aF0
aF0
aF0
aF0
aF0
aF0
aF0
aF0
aF0
aF0
aF0
aF0
aF0
aa(lp836
F1
aF0
aF0
aF0
aF0
aF0
aF0
aF0
aF0
aF0
aF0
aF0
aF0
aF0
aF0
aF0
aa(lp837
F1
aF0
aF0
aF0
aF0
aF0
aF0
aF0
aF0
aF0
aF0
aF0
aF0
aF0
aF0
aF0
aa(lp838
F1
aF0
aF0
aF0
aF0
aF0
aF0
aF0
aF0
aF0
aF0
aF0
aF0
aF0
aF0
aF0
aa(lp839
F1
aF0
aF0
aF0
aF0
aF0
aF0
aF0
aF0
aF0
aF0
aF0
aF0
aF0
aF0
aF0
aasbsS'M2'
p840
(iclusterfk.Mantis
MantisState
p841
(dp842
g8
I0
sg9
g840
sg10
Nsg11
(lp843
I0
aI0
aI0
aI0
aI0
aI0
aI3
aI0
aI0
aI0
aI3
aI0
aI0
aI0
aI0
aI0
asg13
(lp844
(lp845
(lp846
I0
aa(lp847
I0
aa(lp848
I0
aa(lp849
I0
aaa(lp850
(lp851
I0
aa(lp852
I0
aa(lp853
I10
aI15
aI5
aI13
aa(lp854
I0
aaa(lp855
(lp856
I0
aa(lp857
I0
aa(lp858
I10
aI15
aI5
aI13
aa(lp859
I0
aaa(lp860
(lp861
I0
aa(lp862
I0
aa(lp863
I0
aa(lp864
I0
aaasg35
(lp865
(lp866
F1
aF0
aF0
aF0
aF0
aF0
aF0
aF0
aF0
aF0
aF0
aF0
aF0
aF0
aF0
aF0
aa(lp867
F1
aF0
aF0
aF0
aF0
aF0
aF0
aF0
aF0
aF0
aF0
aF0
aF0
aF0
aF0
aF0
aa(lp868
F1
aF0
aF0
aF0
aF0
aF0
aF0
aF0
aF0
aF0
aF0
aF0
aF0
aF0
aF0
aF0
aa(lp869
F1
aF0
aF0
aF0
aF0
aF0
aF0
aF0
aF0
aF0
aF0
aF0
aF0
aF0
aF0
aF0
aa(lp870
F1
aF0
aF0
aF0
aF0
aF0
aF0
aF0
aF0
aF0
aF0
aF0
aF0
aF0
aF0
aF0
aa(lp871
F1
aF0
aF0
aF0
aF0
aF0
aF0
aF0
aF0
aF0
aF0
aF0
aF0
aF0
aF0
aF0
aa(lp872
F0
aF0
aF0
aF0
aF0
aF0.24553950722175022
aF0
aF0
aF0
aF0
aF0.25148683092608326
aF0
aF0
aF0.25148683092608326
aF0
aF0.25148683092608326
aa(lp873
F1
aF0
aF0
aF0
aF0
aF0
aF0
aF0
aF0
aF0
aF0
aF0
aF0
aF0
aF0
aF0
aa(lp874
F1
aF0
aF0
aF0
aF0
aF0
aF0
aF0
aF0
aF0
aF0
aF0
aF0
aF0
aF0
aF0
aa(lp875
F1
aF0
aF0
aF0
aF0
aF0
aF0
aF0
aF0
aF0
aF0
aF0
aF0
aF0
aF0
aF0
aa(lp876
F0
aF0
aF0
aF0
aF0
aF0.25
aF0
aF0
aF0
aF0
aF0.25
aF0
aF0
aF0.25
aF0
aF0.25
aa(lp877
F1
aF0
aF0
aF0
aF0
aF0
aF0
aF0
aF0
aF0
aF0
aF0
aF0
aF0
aF0
aF0
aa(lp878
F1
aF0
aF0
aF0
aF0
aF0
aF0
aF0
aF0
aF0
aF0
aF0
aF0
aF0
aF0
aF0
aa(lp879
F1
aF0
aF0
aF0
aF0
aF0
aF0
aF0
aF0
aF0
aF0
aF0
aF0
aF0
aF0
aF0
aa(lp880
F1
aF0
aF0
aF0
aF0
aF0
aF0
aF0
aF0
aF0
aF0
aF0
aF0
aF0
aF0
aF0
aa(lp881
F1
aF0
aF0
aF0
aF0
aF0
aF0
aF0
aF0
aF0
aF0
aF0
aF0
aF0
aF0
aF0
aasbsS'M9'
p882
(iclusterfk.Mantis
MantisState
p883
(dp884
g8
I0
sg9
g882
sg10
(dp885
(I0
I4
I8
I12
tp886
(dp887
(I10
I10
I0
I0
tp888
F1
ss(I3
I7
I11
I15
tp889
(dp890
(I0
I0
I0
I0
tp891
F1
ss(I1
I5
I9
I13
tp892
(dp893
(I0
I0
I0
I0
tp894
F1
ss(I2
I6
I10
I14
tp895
(dp896
(I0
I0
I0
I0
tp897
F1
sssg11
(lp898
I0
aI0
aI0
aI0
aI0
aI0
aI0
aI0
aI0
aI0
aI0
aI0
aI0
aI0
aI0
aI0
asg13
(lp899
(lp900
(lp901
I10
aa(lp902
I0
aa(lp903
I0
aa(lp904
I0
aaa(lp905
(lp906
I10
aa(lp907
I0
aa(lp908
I0
aa(lp909
I0
aaa(lp910
(lp911
I0
aa(lp912
I0
aa(lp913
I0
aa(lp914
I0
aaa(lp915
(lp916
I0
aa(lp917
I0
aa(lp918
I0
aa(lp919
I0
aaasg35
(lp920
(lp921
F0
aF0
aF0
aF0
aF0
aF0
aF0
aF0
aF0
aF0
aF1
aF0
aF0
aF0
aF0
aF0
aa(lp922
F1
aF0
aF0
aF0
aF0
aF0
aF0
aF0
aF0
aF0
aF0
aF0
aF0
aF0
aF0
aF0
aa(lp923
F1
aF0
aF0
aF0
aF0
aF0
aF0
aF0
aF0
aF0
aF0
aF0
aF0
aF0
aF0
aF0
aa(lp924
F1
aF0
aF0
aF0
aF0
aF0
aF0
aF0
aF0
aF0
aF0
aF0
aF0
aF0
aF0
aF0
aa(lp925
F0
aF0
aF0
aF0
aF0
aF0
aF0
aF0
aF0
aF0
aF1
aF0
aF0
aF0
aF0
aF0
aa(lp926
F1
aF0
aF0
aF0
aF0
aF0
aF0
aF0
aF0
aF0
aF0
aF0
aF0
aF0
aF0
aF0
aa(lp927
F1
aF0
aF0
aF0
aF0
aF0
aF0
aF0
aF0
aF0
aF0
aF0
aF0
aF0
aF0
aF0
aa(lp928
F1
aF0
aF0
aF0
aF0
aF0
aF0
aF0
aF0
aF0
aF0
aF0
aF0
aF0
aF0
aF0
aa(lp929
F1
aF0
aF0
aF0
aF0
aF0
aF0
aF0
aF0
aF0
aF0
aF0
aF0
aF0
aF0
aF0
aa(lp930
F1
aF0
aF0
aF0
aF0
aF0
aF0
aF0
aF0
aF0
aF0
aF0
aF0
aF0
aF0
aF0
aa(lp931
F1
aF0
aF0
aF0
aF0
aF0
aF0
aF0
aF0
aF0
aF0
aF0
aF0
aF0
aF0
aF0
aa(lp932
F1
aF0
aF0
aF0
aF0
aF0
aF0
aF0
aF0
aF0
aF0
aF0
aF0
aF0
aF0
aF0
aa(lp933
F1
aF0
aF0
aF0
aF0
aF0
aF0
aF0
aF0
aF0
aF0
aF0
aF0
aF0
aF0
aF0
aa(lp934
F1
aF0
aF0
aF0
aF0
aF0
aF0
aF0
aF0
aF0
aF0
aF0
aF0
aF0
aF0
aF0
aa(lp935
F1
aF0
aF0
aF0
aF0
aF0
aF0
aF0
aF0
aF0
aF0
aF0
aF0
aF0
aF0
aF0
aa(lp936
F1
aF0
aF0
aF0
aF0
aF0
aF0
aF0
aF0
aF0
aF0
aF0
aF0
aF0
aF0
aF0
aasbsS'M8'
p937
(iclusterfk.Mantis
MantisState
p938
(dp939
g8
I0
sg9
g937
sg10
(dp940
(I0
I4
I8
I12
tp941
(dp942
(I0
I0
I0
I0
tp943
F1
ss(I3
I7
I11
I15
tp944
(dp945
(I0
I0
I0
I0
tp946
F1
ss(I1
I5
I9
I13
tp947
(dp948
(I0
I0
I0
I0
tp949
F1
ss(I2
I6
I10
I14
tp950
(dp951
(I0
I0
I0
I0
tp952
F1
sssg11
(lp953
I0
aI0
aI0
aI0
aI0
aI0
aI0
aI0
aI0
aI0
aI0
aI0
aI0
aI0
aI0
aI0
asg13
(lp954
(lp955
(lp956
I0
aa(lp957
I0
aa(lp958
I0
aa(lp959
I0
aaa(lp960
(lp961
I0
aa(lp962
I0
aa(lp963
I0
aa(lp964
I0
aaa(lp965
(lp966
I0
aa(lp967
I0
aa(lp968
I0
aa(lp969
I0
aaa(lp970
(lp971
I0
aa(lp972
I0
aa(lp973
I0
aa(lp974
I0
aaasg35
(lp975
(lp976
F1
aF0
aF0
aF0
aF0
aF0
aF0
aF0
aF0
aF0
aF0
aF0
aF0
aF0
aF0
aF0
aa(lp977
F1
aF0
aF0
aF0
aF0
aF0
aF0
aF0
aF0
aF0
aF0
aF0
aF0
aF0
aF0
aF0
aa(lp978
F1
aF0
aF0
aF0
aF0
aF0
aF0
aF0
aF0
aF0
aF0
aF0
aF0
aF0
aF0
aF0
aa(lp979
F1
aF0
aF0
aF0
aF0
aF0
aF0
aF0
aF0
aF0
aF0
aF0
aF0
aF0
aF0
aF0
aa(lp980
F1
aF0
aF0
aF0
aF0
aF0
aF0
aF0
aF0
aF0
aF0
aF0
aF0
aF0
aF0
aF0
aa(lp981
F1
aF0
aF0
aF0
aF0
aF0
aF0
aF0
aF0
aF0
aF0
aF0
aF0
aF0
aF0
aF0
aa(lp982
F1
aF0
aF0
aF0
aF0
aF0
aF0
aF0
aF0
aF0
aF0
aF0
aF0
aF0
aF0
aF0
aa(lp983
F1
aF0
aF0
aF0
aF0
aF0
aF0
aF0
aF0
aF0
aF0
aF0
aF0
aF0
aF0
aF0
aa(lp984
F1
aF0
aF0
aF0
aF0
aF0
aF0
aF0
aF0
aF0
aF0
aF0
aF0
aF0
aF0
aF0
aa(lp985
F1
aF0
aF0
aF0
aF0
aF0
aF0
aF0
aF0
aF0
aF0
aF0
aF0
aF0
aF0
aF0
aa(lp986
F1
aF0
aF0
aF0
aF0
aF0
aF0
aF0
aF0
aF0
aF0
aF0
aF0
aF0
aF0
aF0
aa(lp987
F1
aF0
aF0
aF0
aF0
aF0
aF0
aF0
aF0
aF0
aF0
aF0
aF0
aF0
aF0
aF0
aa(lp988
F1
aF0
aF0
aF0
aF0
aF0
aF0
aF0
aF0
aF0
aF0
aF0
aF0
aF0
aF0
aF0
aa(lp989
F1
aF0
aF0
aF0
aF0
aF0
aF0
aF0
aF0
aF0
aF0
aF0
aF0
aF0
aF0
aF0
aa(lp990
F1
aF0
aF0
aF0
aF0
aF0
aF0
aF0
aF0
aF0
aF0
aF0
aF0
aF0
aF0
aF0
aa(lp991
F1
aF0
aF0
aF0
aF0
aF0
aF0
aF0
aF0
aF0
aF0
aF0
aF0
aF0
aF0
aF0
aasbsS'P10'
p992
(iclusterfk.Mantis
MantisState
p993
(dp994
g8
I0
sg9
g992
sg10
(dp995
(I13
I7
I8
I2
tp996
(dp997
(I0
I0
I0
I0
tp998
F1
ss(I6
I12
I3
I9
tp999
(dp1000
(I0
I15
I15
I0
tp1001
F0.25
s(I0
I13
I13
I0
tp1002
F0.25
s(I0
I5
I5
I0
tp1003
F0.25
s(I0
I10
I10
I0
tp1004
F0.25
ss(I11
I1
I14
I4
tp1005
(dp1006
(I0
I0
I0
I0
tp1007
F1
ss(I0
I10
I5
I15
tp1008
(dp1009
(I0
I0
I0
I0
tp1010
F1
sssg11
(lp1011
I0
aI0
aI0
aI4
aI0
aI0
aI0
aI0
aI0
aI0
aI0
aI0
aI4
aI0
aI0
aI0
asg13
(lp1012
(lp1013
(lp1014
I0
aa(lp1015
I0
aa(lp1016
I0
aa(lp1017
I10
aI15
aI13
aI5
aaa(lp1018
(lp1019
I0
aa(lp1020
I0
aa(lp1021
I0
aa(lp1022
I0
aaa(lp1023
(lp1024
I0
aa(lp1025
I0
aa(lp1026
I0
aa(lp1027
I0
aaa(lp1028
(lp1029
I10
aI15
aI13
aI5
aa(lp1030
I0
aa(lp1031
I0
aa(lp1032
I0
aaasg35
(lp1033
(lp1034
F1
aF0
aF0
aF0
aF0
aF0
aF0
aF0
aF0
aF0
aF0
aF0
aF0
aF0
aF0
aF0
aa(lp1035
F1
aF0
aF0
aF0
aF0
aF0
aF0
aF0
aF0
aF0
aF0
aF0
aF0
aF0
aF0
aF0
aa(lp1036
F1
aF0
aF0
aF0
aF0
aF0
aF0
aF0
aF0
aF0
aF0
aF0
aF0
aF0
aF0
aF0
aa(lp1037
F0
aF0
aF0
aF0
aF0
aF0.25
aF0
aF0
aF0
aF0
aF0.25
aF0
aF0
aF0.25
aF0
aF0.25
aa(lp1038
F1
aF0
aF0
aF0
aF0
aF0
aF0
aF0
aF0
aF0
aF0
aF0
aF0
aF0
aF0
aF0
aa(lp1039
F1
aF0
aF0
aF0
aF0
aF0
aF0
aF0
aF0
aF0
aF0
aF0
aF0
aF0
aF0
aF0
aa(lp1040
F1
aF0
aF0
aF0
aF0
aF0
aF0
aF0
aF0
aF0
aF0
aF0
aF0
aF0
aF0
aF0
aa(lp1041
F1
aF0
aF0
aF0
aF0
aF0
aF0
aF0
aF0
aF0
aF0
aF0
aF0
aF0
aF0
aF0
aa(lp1042
F1
aF0
aF0
aF0
aF0
aF0
aF0
aF0
aF0
aF0
aF0
aF0
aF0
aF0
aF0
aF0
aa(lp1043
F1
aF0
aF0
aF0
aF0
aF0
aF0
aF0
aF0
aF0
aF0
aF0
aF0
aF0
aF0
aF0
aa(lp1044
F1
aF0
aF0
aF0
aF0
aF0
aF0
aF0
aF0
aF0
aF0
aF0
aF0
aF0
aF0
aF0
aa(lp1045
F1
aF0
aF0
aF0
aF0
aF0
aF0
aF0
aF0
aF0
aF0
aF0
aF0
aF0
aF0
aF0
aa(lp1046
F0
aF0
aF0
aF0
aF0
aF0.25
aF0
aF0
aF0
aF0
aF0.25
aF0
aF0
aF0.25
aF0
aF0.25
aa(lp1047
F1
aF0
aF0
aF0
aF0
aF0
aF0
aF0
aF0
aF0
aF0
aF0
aF0
aF0
aF0
aF0
aa(lp1048
F1
aF0
aF0
aF0
aF0
aF0
aF0
aF0
aF0
aF0
aF0
aF0
aF0
aF0
aF0
aF0
aa(lp1049
F1
aF0
aF0
aF0
aF0
aF0
aF0
aF0
aF0
aF0
aF0
aF0
aF0
aF0
aF0
aF0
aasbsS'A11'
p1050
(iclusterfk.Mantis
MantisState
p1051
(dp1052
g8
I0
sg9
g1050
sg10
(dp1053
(I13
I7
I8
I2
tp1054
(dp1055
(I0
I1
I1
I11
tp1056
F0.03125
s(I0
I4
I4
I14
tp1057
F0.03125
s(I0
I15
I15
I5
tp1058
F0.125
s(I0
I11
I11
I1
tp1059
F0.0625
s(I0
I7
I7
I13
tp1060
F0.125
s(I0
I14
I14
I4
tp1061
F0.0625
s(I0
I3
I3
I9
tp1062
F0.0625
s(I0
I10
I10
I0
tp1063
F0.25
s(I0
I13
I13
I7
tp1064
F0.0625
s(I0
I6
I6
I12
tp1065
F0.0625
s(I0
I9
I9
I3
tp1066
F0.03125
s(I0
I5
I5
I15
tp1067
F0.0625
s(I0
I12
I12
I6
tp1068
F0.03125
ss(I0
I10
I5
I15
tp1069
(dp1070
(I13
I13
I13
I0
tp1071
F0.0625
s(I15
I15
I15
I0
tp1072
F0.125
s(I1
I1
I1
I0
tp1073
F0.03125
s(I3
I3
I3
I0
tp1074
F0.0625
s(I5
I5
I5
I0
tp1075
F0.0625
s(I7
I7
I7
I0
tp1076
F0.125
s(I10
I10
I10
I0
tp1077
F0.25
s(I12
I12
I12
I0
tp1078
F0.03125
s(I14
I14
I14
I0
tp1079
F0.0625
s(I4
I4
I4
I0
tp1080
F0.03125
s(I6
I6
I6
I0
tp1081
F0.0625
s(I9
I9
I9
I0
tp1082
F0.03125
s(I11
I11
I11
I0
tp1083
F0.0625
ss(I6
I12
I3
I9
tp1084
(dp1085
(I10
I5
I15
I15
tp1086
F0.0625
s(I5
I5
I0
I0
tp1087
F0.0625
s(I15
I13
I2
I2
tp1088
F0.0625
s(I13
I5
I8
I8
tp1089
F0.0625
s(I13
I10
I7
I7
tp1090
F0.0625
s(I13
I13
I0
I0
tp1091
F0.0625
s(I5
I13
I8
I8
tp1092
F0.0625
s(I10
I15
I5
I5
tp1093
F0.0625
s(I5
I10
I15
I15
tp1094
F0.0625
s(I10
I10
I0
I0
tp1095
F0.0625
s(I13
I15
I2
I2
tp1096
F0.0625
s(I15
I15
I0
I0
tp1097
F0.0625
s(I10
I13
I7
I7
tp1098
F0.0625
s(I15
I5
I10
I10
tp1099
F0.0625
s(I5
I15
I10
I10
tp1100
F0.0625
s(I15
I10
I5
I5
tp1101
F0.0625
ss(I11
I1
I14
I4
tp1102
(dp1103
(I0
I0
I10
I0
tp1104
F1
sssg11
(lp1105
I5
aI0
aI6
aI0
aI0
aI5
aI0
aI6
aI6
aI0
aI5
aI0
aI0
aI0
aI0
aI0
asg13
(lp1106
(lp1107
(lp1108
I1
aI3
aI4
aI5
aI6
aI7
aI9
aI10
aI11
aI12
aI13
aI14
aI15
aa(lp1109
I0
aa(lp1110
I0
aI1
aI3
aI4
aI5
aI6
aI7
aI9
aI11
aI12
aI13
aI14
aI15
aa(lp1111
I0
aI2
aI5
aI7
aI8
aI10
aI15
aaa(lp1112
(lp1113
I0
aa(lp1114
I1
aI3
aI4
aI5
aI6
aI7
aI9
aI10
aI11
aI12
aI13
aI14
aI15
aa(lp1115
I10
aI13
aI5
aI15
aa(lp1116
I1
aI3
aI4
aI5
aI6
aI7
aI9
aI10
aI11
aI12
aI13
aI14
aI15
aaa(lp1117
(lp1118
I1
aI3
aI4
aI5
aI6
aI7
aI9
aI10
aI11
aI12
aI13
aI14
aI15
aa(lp1119
I0
aI2
aI5
aI7
aI8
aI10
aI15
aa(lp1120
I1
aI3
aI4
aI5
aI6
aI7
aI9
aI10
aI11
aI12
aI13
aI14
aI15
aa(lp1121
I0
aaa(lp1122
(lp1123
I10
aI15
aI5
aI13
aa(lp1124
I0
aa(lp1125
I10
aa(lp1126
I0
aaasg35
(lp1127
(lp1128
F0
aF0.03125
aF0
aF0.0625
aF0.03125
aF0.0625
aF0.0625
aF0.125
aF0
aF0.03125
aF0.25
aF0.0625
aF0.03125
aF0.0625
aF0.0625
aF0.125
aa(lp1129
F1
aF0
aF0
aF0
aF0
aF0
aF0
aF0
aF0
aF0
aF0
aF0
aF0
aF0
aF0
aF0
aa(lp1130
F0.25
aF0.0625
aF0
aF0.03125
aF0.0625
aF0.125
aF0.03125
aF0.0625
aF0
aF0.0625
aF0
aF0.03125
aF0.0625
aF0.125
aF0.03125
aF0.0625
aa(lp1131
F0.25
aF0
aF0.125
aF0
aF0
aF0.125
aF0
aF0.125
aF0.125
aF0
aF0.125
aF0
aF0
aF0
aF0
aF0.125
aa(lp1132
F1
aF0
aF0
aF0
aF0
aF0
aF0
aF0
aF0
aF0
aF0
aF0
aF0
aF0
aF0
aF0
aa(lp1133
F0
aF0.03125
aF0
aF0.0625
aF0.03125
aF0.0625
aF0.0625
aF0.125
aF0
aF0.03125
aF0.25
aF0.0625
aF0.03125
aF0.0625
aF0.0625
aF0.125
aa(lp1134
F0
aF0
aF0
aF0
aF0
aF0.25
aF0
aF0
aF0
aF0
aF0.25
aF0
aF0
aF0.25
aF0
aF0.25
aa(lp1135
F0
aF0.03125
aF0
aF0.0625
aF0.03125
aF0.0625
aF0.0625
aF0.125
aF0
aF0.03125
aF0.25
aF0.0625
aF0.03125
aF0.0625
aF0.0625
aF0.125
aa(lp1136
F0
aF0.03125
aF0
aF0.0625
aF0.03125
aF0.0625
aF0.0625
aF0.125
aF0
aF0.03125
aF0.25
aF0.0625
aF0.03125
aF0.0625
aF0.0625
aF0.125
aa(lp1137
F0.25
aF0
aF0.125
aF0
aF0
aF0.125
aF0
aF0.125
aF0.125
aF0
aF0.125
aF0
aF0
aF0
aF0
aF0.125
aa(lp1138
F0
aF0.03125
aF0
aF0.0625
aF0.03125
aF0.0625
aF0.0625
aF0.125
aF0
aF0.03125
aF0.25
aF0.0625
aF0.03125
aF0.0625
aF0.0625
aF0.125
aa(lp1139
F1
aF0
aF0
aF0
aF0
aF0
aF0
aF0
aF0
aF0
aF0
aF0
aF0
aF0
aF0
aF0
aa(lp1140
F0
aF0
aF0
aF0
aF0
aF0.25
aF0
aF0
aF0
aF0
aF0.25
aF0
aF0
aF0.25
aF0
aF0.25
aa(lp1141
F1
aF0
aF0
aF0
aF0
aF0
aF0
aF0
aF0
aF0
aF0
aF0
aF0
aF0
aF0
aF0
aa(lp1142
F0
aF0
aF0
aF0
aF0
aF0
aF0
aF0
aF0
aF0
aF1
aF0
aF0
aF0
aF0
aF0
aa(lp1143
F1
aF0
aF0
aF0
aF0
aF0
aF0
aF0
aF0
aF0
aF0
aF0
aF0
aF0
aF0
aF0
aasbsS'A10'
p1144
(iclusterfk.Mantis
MantisState
p1145
(dp1146
g8
I0
sg9
g1144
sg10
(dp1147
g996
(dp1148
(I0
I0
I0
I10
tp1149
F1
ssg1008
(dp1150
(I0
I0
I0
I0
tp1151
F1
ssg999
(dp1152
(I10
I10
I10
I0
tp1153
F0.25
s(I10
I15
I15
I0
tp1154
F0.25
s(I10
I5
I5
I0
tp1155
F0.25
s(I10
I13
I13
I0
tp1156
F0.25
ssg1005
(dp1157
(I0
I0
I0
I0
tp1158
F1
sssg11
(lp1159
I0
aI0
aI0
aI4
aI0
aI0
aI0
aI0
aI0
aI0
aI0
aI0
aI4
aI0
aI0
aI0
asg13
(lp1160
(lp1161
(lp1162
I0
aa(lp1163
I0
aa(lp1164
I10
aa(lp1165
I10
aI15
aI5
aI13
aaa(lp1166
(lp1167
I0
aa(lp1168
I0
aa(lp1169
I10
aa(lp1170
I0
aaa(lp1171
(lp1172
I0
aa(lp1173
I0
aa(lp1174
I0
aa(lp1175
I0
aaa(lp1176
(lp1177
I10
aI15
aI5
aI13
aa(lp1178
I0
aa(lp1179
I0
aa(lp1180
I0
aaasg35
(lp1181
(lp1182
F1
aF0
aF0
aF0
aF0
aF0
aF0
aF0
aF0
aF0
aF0
aF0
aF0
aF0
aF0
aF0
aa(lp1183
F1
aF0
aF0
aF0
aF0
aF0
aF0
aF0
aF0
aF0
aF0
aF0
aF0
aF0
aF0
aF0
aa(lp1184
F0
aF0
aF0
aF0
aF0
aF0
aF0
aF0
aF0
aF0
aF1
aF0
aF0
aF0
aF0
aF0
aa(lp1185
F0
aF0
aF0
aF0
aF0
aF0.25
aF0
aF0
aF0
aF0
aF0.25
aF0
aF0
aF0.25
aF0
aF0.25
aa(lp1186
F1
aF0
aF0
aF0
aF0
aF0
aF0
aF0
aF0
aF0
aF0
aF0
aF0
aF0
aF0
aF0
aa(lp1187
F1
aF0
aF0
aF0
aF0
aF0
aF0
aF0
aF0
aF0
aF0
aF0
aF0
aF0
aF0
aF0
aa(lp1188
F0
aF0
aF0
aF0
aF0
aF0
aF0
aF0
aF0
aF0
aF1
aF0
aF0
aF0
aF0
aF0
aa(lp1189
F1
aF0
aF0
aF0
aF0
aF0
aF0
aF0
aF0
aF0
aF0
aF0
aF0
aF0
aF0
aF0
aa(lp1190
F1
aF0
aF0
aF0
aF0
aF0
aF0
aF0
aF0
aF0
aF0
aF0
aF0
aF0
aF0
aF0
aa(lp1191
F1
aF0
aF0
aF0
aF0
aF0
aF0
aF0
aF0
aF0
aF0
aF0
aF0
aF0
aF0
aF0
aa(lp1192
F1
aF0
aF0
aF0
aF0
aF0
aF0
aF0
aF0
aF0
aF0
aF0
aF0
aF0
aF0
aF0
aa(lp1193
F1
aF0
aF0
aF0
aF0
aF0
aF0
aF0
aF0
aF0
aF0
aF0
aF0
aF0
aF0
aF0
aa(lp1194
F0
aF0
aF0
aF0
aF0
aF0.25
aF0
aF0
aF0
aF0
aF0.25
aF0
aF0
aF0.25
aF0
aF0.25
aa(lp1195
F1
aF0
aF0
aF0
aF0
aF0
aF0
aF0
aF0
aF0
aF0
aF0
aF0
aF0
aF0
aF0
aa(lp1196
F1
aF0
aF0
aF0
aF0
aF0
aF0
aF0
aF0
aF0
aF0
aF0
aF0
aF0
aF0
aF0
aa(lp1197
F1
aF0
aF0
aF0
aF0
aF0
aF0
aF0
aF0
aF0
aF0
aF0
aF0
aF0
aF0
aF0
aasbsS'P11'
p1198
(iclusterfk.Mantis
MantisState
p1199
(dp1200
g8
I0
sg9
g1198
sg10
(dp1201
g1054
(dp1202
(I0
I11
I11
I11
tp1203
F0.0625
s(I0
I14
I14
I14
tp1204
F0.0625
s(I0
I5
I5
I5
tp1205
F0.0625
s(I0
I10
I10
I10
tp1206
F0.25
s(I0
I1
I1
I1
tp1207
F0.03125
s(I0
I13
I13
I13
tp1208
F0.0625
s(I0
I4
I4
I4
tp1209
F0.03125
s(I0
I9
I9
I9
tp1210
F0.03125
s(I0
I7
I7
I7
tp1211
F0.125
s(I0
I12
I12
I12
tp1212
F0.03125
s(I0
I3
I3
I3
tp1213
F0.0625
s(I0
I15
I15
I15
tp1214
F0.125
s(I0
I6
I6
I6
tp1215
F0.0625
ssg1084
(dp1216
(I10
I5
I15
I15
tp1217
F0.0625
s(I5
I5
I0
I0
tp1218
F0.0625
s(I13
I10
I7
I7
tp1219
F0.0625
s(I5
I13
I8
I8
tp1220
F0.0625
s(I10
I15
I5
I5
tp1221
F0.0625
s(I5
I15
I10
I10
tp1222
F0.0625
s(I13
I13
I0
I0
tp1223
F0.0625
s(I15
I15
I0
I0
tp1224
F0.0625
s(I5
I10
I15
I15
tp1225
F0.0625
s(I10
I10
I0
I0
tp1226
F0.0625
s(I13
I15
I2
I2
tp1227
F0.0625
s(I13
I5
I8
I8
tp1228
F0.0625
s(I10
I13
I7
I7
tp1229
F0.0625
s(I15
I5
I10
I10
tp1230
F0.0625
s(I15
I13
I2
I2
tp1231
F0.0625
s(I15
I10
I5
I5
tp1232
F0.0625
ssg1102
(dp1233
(I0
I0
I0
I0
tp1234
F1
ssg1069
(dp1235
(I13
I13
I13
I0
tp1236
F0.0625
s(I15
I15
I15
I0
tp1237
F0.125
s(I1
I1
I1
I0
tp1238
F0.03125
s(I3
I3
I3
I0
tp1239
F0.0625
s(I5
I5
I5
I0
tp1240
F0.0625
s(I7
I7
I7
I0
tp1241
F0.125
s(I10
I10
I10
I0
tp1242
F0.25
s(I12
I12
I12
I0
tp1243
F0.03125
s(I14
I14
I14
I0
tp1244
F0.0625
s(I4
I4
I4
I0
tp1245
F0.03125
s(I6
I6
I6
I0
tp1246
F0.0625
s(I9
I9
I9
I0
tp1247
F0.03125
s(I11
I11
I11
I0
tp1248
F0.0625
sssg11
(lp1249
I5
aI0
aI6
aI0
aI0
aI5
aI0
aI6
aI6
aI0
aI5
aI0
aI0
aI0
aI0
aI0
asg13
(lp1250
(lp1251
(lp1252
I1
aI3
aI4
aI5
aI6
aI7
aI9
aI10
aI11
aI12
aI13
aI14
aI15
aa(lp1253
I0
aa(lp1254
I1
aI3
aI4
aI5
aI6
aI7
aI9
aI10
aI11
aI12
aI13
aI14
aI15
aa(lp1255
I0
aI2
aI5
aI7
aI8
aI10
aI15
aaa(lp1256
(lp1257
I0
aa(lp1258
I1
aI3
aI4
aI5
aI6
aI7
aI9
aI10
aI11
aI12
aI13
aI14
aI15
aa(lp1259
I10
aI5
aI13
aI15
aa(lp1260
I1
aI3
aI4
aI5
aI6
aI7
aI9
aI10
aI11
aI12
aI13
aI14
aI15
aaa(lp1261
(lp1262
I1
aI3
aI4
aI5
aI6
aI7
aI9
aI10
aI11
aI12
aI13
aI14
aI15
aa(lp1263
I0
aI2
aI5
aI7
aI8
aI10
aI15
aa(lp1264
I1
aI3
aI4
aI5
aI6
aI7
aI9
aI10
aI11
aI12
aI13
aI14
aI15
aa(lp1265
I0
aaa(lp1266
(lp1267
I10
aI15
aI13
aI5
aa(lp1268
I0
aa(lp1269
I0
aa(lp1270
I0
aaasg35
(lp1271
(lp1272
F0
aF0.03125
aF0
aF0.0625
aF0.03125
aF0.0625
aF0.0625
aF0.125
aF0
aF0.03125
aF0.25
aF0.0625
aF0.03125
aF0.0625
aF0.0625
aF0.125
aa(lp1273
F1
aF0
aF0
aF0
aF0
aF0
aF0
aF0
aF0
aF0
aF0
aF0
aF0
aF0
aF0
aF0
aa(lp1274
F0
aF0.03125
aF0
aF0.0625
aF0.03125
aF0.0625
aF0.0625
aF0.125
aF0
aF0.03125
aF0.25
aF0.0625
aF0.03125
aF0.0625
aF0.0625
aF0.125
aa(lp1275
F0.25
aF0
aF0.125
aF0
aF0
aF0.125
aF0
aF0.125
aF0.125
aF0
aF0.125
aF0
aF0
aF0
aF0
aF0.125
aa(lp1276
F1
aF0
aF0
aF0
aF0
aF0
aF0
aF0
aF0
aF0
aF0
aF0
aF0
aF0
aF0
aF0
aa(lp1277
F0
aF0.03125
aF0
aF0.0625
aF0.03125
aF0.0625
aF0.0625
aF0.125
aF0
aF0.03125
aF0.25
aF0.0625
aF0.03125
aF0.0625
aF0.0625
aF0.125
aa(lp1278
F0
aF0
aF0
aF0
aF0
aF0.25
aF0
aF0
aF0
aF0
aF0.25
aF0
aF0
aF0.25
aF0
aF0.25
aa(lp1279
F0
aF0.03125
aF0
aF0.0625
aF0.03125
aF0.0625
aF0.0625
aF0.125
aF0
aF0.03125
aF0.25
aF0.0625
aF0.03125
aF0.0625
aF0.0625
aF0.125
aa(lp1280
F0
aF0.03125
aF0
aF0.0625
aF0.03125
aF0.0625
aF0.0625
aF0.125
aF0
aF0.03125
aF0.25
aF0.0625
aF0.03125
aF0.0625
aF0.0625
aF0.125
aa(lp1281
F0.25
aF0
aF0.125
aF0
aF0
aF0.125
aF0
aF0.125
aF0.125
aF0
aF0.125
aF0
aF0
aF0
aF0
aF0.125
aa(lp1282
F0
aF0.03125
aF0
aF0.0625
aF0.03125
aF0.0625
aF0.0625
aF0.125
aF0
aF0.03125
aF0.25
aF0.0625
aF0.03125
aF0.0625
aF0.0625
aF0.125
aa(lp1283
F1
aF0
aF0
aF0
aF0
aF0
aF0
aF0
aF0
aF0
aF0
aF0
aF0
aF0
aF0
aF0
aa(lp1284
F0
aF0
aF0
aF0
aF0
aF0.25
aF0
aF0
aF0
aF0
aF0.25
aF0
aF0
aF0.25
aF0
aF0.25
aa(lp1285
F1
aF0
aF0
aF0
aF0
aF0
aF0
aF0
aF0
aF0
aF0
aF0
aF0
aF0
aF0
aF0
aa(lp1286
F1
aF0
aF0
aF0
aF0
aF0
aF0
aF0
aF0
aF0
aF0
aF0
aF0
aF0
aF0
aF0
aa(lp1287
F1
aF0
aF0
aF0
aF0
aF0
aF0
aF0
aF0
aF0
aF0
aF0
aF0
aF0
aF0
aF0
aasbsS'S12'
p1288
(iclusterfk.Mantis
MantisState
p1289
(dp1290
g8
I0
sg9
g1288
sg10
Nsg11
(lp1291
I0
aI0
aI0
aI0
aI0
aI0
aI0
aI0
aI0
aI0
aI0
aI0
aI0
aI0
aI0
aI0
asg13
(lp1292
(lp1293
(lp1294
I1
aI2
aI3
aI4
aI5
aI6
aI7
aI8
aI9
aI10
aI11
aI12
aI13
aI14
aI15
aa(lp1295
I0
aa(lp1296
I0
aI1
aI2
aI3
aI4
aI5
aI6
aI7
aI8
aI9
aI10
aI11
aI12
aI13
aI14
aI15
aa(lp1297
I0
aI1
aI3
aI4
aI5
aI6
aI7
aI9
aI10
aI11
aI12
aI13
aI14
aI15
aaa(lp1298
(lp1299
I0
aa(lp1300
I1
aI2
aI3
aI4
aI5
aI6
aI7
aI8
aI9
aI10
aI11
aI12
aI13
aI14
aI15
aa(lp1301
I1
aI3
aI4
aI5
aI6
aI7
aI9
aI10
aI11
aI12
aI13
aI14
aI15
aa(lp1302
I1
aI2
aI3
aI4
aI5
aI6
aI7
aI8
aI9
aI10
aI11
aI12
aI13
aI14
aI15
aaa(lp1303
(lp1304
I1
aI2
aI3
aI4
aI5
aI6
aI7
aI8
aI9
aI10
aI11
aI12
aI13
aI14
aI15
aa(lp1305
I0
aI1
aI3
aI4
aI5
aI6
aI7
aI9
aI10
aI11
aI12
aI13
aI14
aI15
aa(lp1306
I1
aI2
aI3
aI4
aI5
aI6
aI7
aI8
aI9
aI10
aI11
aI12
aI13
aI14
aI15
aa(lp1307
I0
aaa(lp1308
(lp1309
I1
aI3
aI4
aI5
aI6
aI7
aI9
aI10
aI11
aI12
aI13
aI14
aI15
aa(lp1310
I0
aa(lp1311
I10
aI13
aI5
aI15
aa(lp1312
I0
aaasg35
(lp1313
(lp1314
F0
aF0.03125
aF0.03125
aF0.0625
aF0.03125
aF0.109375
aF0.0625
aF0.0625
aF0.046875
aF0.03125
aF0.125
aF0.0625
aF0.03125
aF0.125
aF0.0625
aF0.125
aa(lp1315
F1
aF0
aF0
aF0
aF0
aF0
aF0
aF0
aF0
aF0
aF0
aF0
aF0
aF0
aF0
aF0
aa(lp1316
F0.25
aF0.0390625
aF0.0625
aF0.0546875
aF0.0390625
aF0.046875
aF0.0546875
aF0.078125
aF0.046875
aF0.0390625
aF0.078125
aF0.0546875
aF0.0390625
aF0.03125
aF0.0546875
aF0.03125
aa(lp1317
F0.25
aF0.0625
aF0
aF0.046875
aF0.0625
aF0.0625
aF0.046875
aF0.03125
aF0
aF0.0625
aF0.09375
aF0.046875
aF0.0625
aF0.0625
aF0.046875
aF0.0625
aa(lp1318
F1
aF0
aF0
aF0
aF0
aF0
aF0
aF0
aF0
aF0
aF0
aF0
aF0
aF0
aF0
aF0
aa(lp1319
F0
aF0.03125
aF0.03125
aF0.0625
aF0.03125
aF0.109375
aF0.0625
aF0.0625
aF0.046875
aF0.03125
aF0.125
aF0.0625
aF0.03125
aF0.125
aF0.0625
aF0.125
aa(lp1320
F0
aF0.03125
aF0
aF0.0625
aF0.03125
aF0.0625
aF0.0625
aF0.125
aF0
aF0.03125
aF0.25
aF0.0625
aF0.03125
aF0.0625
aF0.0625
aF0.125
aa(lp1321
F0
aF0.03125
aF0.03125
aF0.0625
aF0.03125
aF0.109375
aF0.0625
aF0.0625
aF0.046875
aF0.03125
aF0.125
aF0.0625
aF0.03125
aF0.125
aF0.0625
aF0.125
aa(lp1322
F0
aF0.03125
aF0.03125
aF0.0625
aF0.03125
aF0.109375
aF0.0625
aF0.0625
aF0.046875
aF0.03125
aF0.125
aF0.0625
aF0.03125
aF0.125
aF0.0625
aF0.125
aa(lp1323
F0.25
aF0.0625
aF0
aF0.046875
aF0.0625
aF0.0625
aF0.046875
aF0.03125
aF0
aF0.0625
aF0.09375
aF0.046875
aF0.0625
aF0.0625
aF0.046875
aF0.0625
aa(lp1324
F0
aF0.03125
aF0.03125
aF0.0625
aF0.03125
aF0.109375
aF0.0625
aF0.0625
aF0.046875
aF0.03125
aF0.125
aF0.0625
aF0.03125
aF0.125
aF0.0625
aF0.125
aa(lp1325
F1
aF0
aF0
aF0
aF0
aF0
aF0
aF0
aF0
aF0
aF0
aF0
aF0
aF0
aF0
aF0
aa(lp1326
F0
aF0.03125
aF0
aF0.0625
aF0.03125
aF0.0625
aF0.0625
aF0.125
aF0
aF0.03125
aF0.25
aF0.0625
aF0.03125
aF0.0625
aF0.0625
aF0.125
aa(lp1327
F1
aF0
aF0
aF0
aF0
aF0
aF0
aF0
aF0
aF0
aF0
aF0
aF0
aF0
aF0
aF0
aa(lp1328
F0
aF0
aF0
aF0
aF0
aF0.25
aF0
aF0
aF0
aF0
aF0.25
aF0
aF0
aF0.25
aF0
aF0.25
aa(lp1329
F1
aF0
aF0
aF0
aF0
aF0
aF0
aF0
aF0
aF0
aF0
aF0
aF0
aF0
aF0
aF0
aasbsS'S11'
p1330
(iclusterfk.Mantis
MantisState
p1331
(dp1332
g8
I0
sg9
g1330
sg10
Nsg11
(lp1333
I0
aI0
aI0
aI6
aI0
aI0
aI0
aI0
aI0
aI0
aI0
aI0
aI5
aI0
aI0
aI0
asg13
(lp1334
(lp1335
(lp1336
I0
aa(lp1337
I0
aa(lp1338
I10
aI13
aI5
aI15
aa(lp1339
I1
aI3
aI4
aI5
aI6
aI7
aI9
aI10
aI11
aI12
aI13
aI14
aI15
aaa(lp1340
(lp1341
I0
aa(lp1342
I0
aa(lp1343
I10
aI13
aI5
aI15
aa(lp1344
I0
aaa(lp1345
(lp1346
I0
aa(lp1347
I0
aa(lp1348
I0
aa(lp1349
I0
aaa(lp1350
(lp1351
I1
aI3
aI4
aI5
aI6
aI7
aI9
aI10
aI11
aI12
aI13
aI14
aI15
aa(lp1352
I0
aa(lp1353
I0
aa(lp1354
I0
aaasg35
(lp1355
(lp1356
F1
aF0
aF0
aF0
aF0
aF0
aF0
aF0
aF0
aF0
aF0
aF0
aF0
aF0
aF0
aF0
aa(lp1357
F1
aF0
aF0
aF0
aF0
aF0
aF0
aF0
aF0
aF0
aF0
aF0
aF0
aF0
aF0
aF0
aa(lp1358
F0
aF0
aF0
aF0
aF0
aF0.25
aF0
aF0
aF0
aF0
aF0.25
aF0
aF0
aF0.25
aF0
aF0.25
aa(lp1359
F0
aF0.03125
aF0
aF0.0625
aF0.03125
aF0.0625
aF0.0625
aF0.125
aF0
aF0.03125
aF0.25
aF0.0625
aF0.03125
aF0.0625
aF0.0625
aF0.125
aa(lp1360
F1
aF0
aF0
aF0
aF0
aF0
aF0
aF0
aF0
aF0
aF0
aF0
aF0
aF0
aF0
aF0
aa(lp1361
F1
aF0
aF0
aF0
aF0
aF0
aF0
aF0
aF0
aF0
aF0
aF0
aF0
aF0
aF0
aF0
aa(lp1362
F0
aF0
aF0
aF0
aF0
aF0.25
aF0
aF0
aF0
aF0
aF0.25
aF0
aF0
aF0.25
aF0
aF0.25
aa(lp1363
F1
aF0
aF0
aF0
aF0
aF0
aF0
aF0
aF0
aF0
aF0
aF0
aF0
aF0
aF0
aF0
aa(lp1364
F1
aF0
aF0
aF0
aF0
aF0
aF0
aF0
aF0
aF0
aF0
aF0
aF0
aF0
aF0
aF0
aa(lp1365
F1
aF0
aF0
aF0
aF0
aF0
aF0
aF0
aF0
aF0
aF0
aF0
aF0
aF0
aF0
aF0
aa(lp1366
F1
aF0
aF0
aF0
aF0
aF0
aF0
aF0
aF0
aF0
aF0
aF0
aF0
aF0
aF0
aF0
aa(lp1367
F1
aF0
aF0
aF0
aF0
aF0
aF0
aF0
aF0
aF0
aF0
aF0
aF0
aF0
aF0
aF0
aa(lp1368
F0
aF0.03125
aF0
aF0.0625
aF0.03125
aF0.0625
aF0.0625
aF0.125
aF0
aF0.03125
aF0.25
aF0.0625
aF0.03125
aF0.0625
aF0.0625
aF0.125
aa(lp1369
F1
aF0
aF0
aF0
aF0
aF0
aF0
aF0
aF0
aF0
aF0
aF0
aF0
aF0
aF0
aF0
aa(lp1370
F1
aF0
aF0
aF0
aF0
aF0
aF0
aF0
aF0
aF0
aF0
aF0
aF0
aF0
aF0
aF0
aa(lp1371
F1
aF0
aF0
aF0
aF0
aF0
aF0
aF0
aF0
aF0
aF0
aF0
aF0
aF0
aF0
aF0
aasbsS'S10'
p1372
(iclusterfk.Mantis
MantisState
p1373
(dp1374
g8
I0
sg9
g1372
sg10
Nsg11
(lp1375
I0
aI0
aI0
aI0
aI0
aI0
aI4
aI0
aI0
aI0
aI4
aI0
aI0
aI0
aI0
aI0
asg13
(lp1376
(lp1377
(lp1378
I0
aa(lp1379
I0
aa(lp1380
I0
aa(lp1381
I0
aaa(lp1382
(lp1383
I0
aa(lp1384
I0
aa(lp1385
I10
aI13
aI5
aI15
aa(lp1386
I0
aaa(lp1387
(lp1388
I0
aa(lp1389
I0
aa(lp1390
I10
aI13
aI5
aI15
aa(lp1391
I0
aaa(lp1392
(lp1393
I0
aa(lp1394
I0
aa(lp1395
I0
aa(lp1396
I0
aaasg35
(lp1397
(lp1398
F1
aF0
aF0
aF0
aF0
aF0
aF0
aF0
aF0
aF0
aF0
aF0
aF0
aF0
aF0
aF0
aa(lp1399
F1
aF0
aF0
aF0
aF0
aF0
aF0
aF0
aF0
aF0
aF0
aF0
aF0
aF0
aF0
aF0
aa(lp1400
F1
aF0
aF0
aF0
aF0
aF0
aF0
aF0
aF0
aF0
aF0
aF0
aF0
aF0
aF0
aF0
aa(lp1401
F1
aF0
aF0
aF0
aF0
aF0
aF0
aF0
aF0
aF0
aF0
aF0
aF0
aF0
aF0
aF0
aa(lp1402
F1
aF0
aF0
aF0
aF0
aF0
aF0
aF0
aF0
aF0
aF0
aF0
aF0
aF0
aF0
aF0
aa(lp1403
F1
aF0
aF0
aF0
aF0
aF0
aF0
aF0
aF0
aF0
aF0
aF0
aF0
aF0
aF0
aF0
aa(lp1404
F0
aF0
aF0
aF0
aF0
aF0.25
aF0
aF0
aF0
aF0
aF0.25
aF0
aF0
aF0.25
aF0
aF0.25
aa(lp1405
F1
aF0
aF0
aF0
aF0
aF0
aF0
aF0
aF0
aF0
aF0
aF0
aF0
aF0
aF0
aF0
aa(lp1406
F1
aF0
aF0
aF0
aF0
aF0
aF0
aF0
aF0
aF0
aF0
aF0
aF0
aF0
aF0
aF0
aa(lp1407
F1
aF0
aF0
aF0
aF0
aF0
aF0
aF0
aF0
aF0
aF0
aF0
aF0
aF0
aF0
aF0
aa(lp1408
F0
aF0
aF0
aF0
aF0
aF0.25
aF0
aF0
aF0
aF0
aF0.25
aF0
aF0
aF0.25
aF0
aF0.25
aa(lp1409
F1
aF0
aF0
aF0
aF0
aF0
aF0
aF0
aF0
aF0
aF0
aF0
aF0
aF0
aF0
aF0
aa(lp1410
F1
aF0
aF0
aF0
aF0
aF0
aF0
aF0
aF0
aF0
aF0
aF0
aF0
aF0
aF0
aF0
aa(lp1411
F1
aF0
aF0
aF0
aF0
aF0
aF0
aF0
aF0
aF0
aF0
aF0
aF0
aF0
aF0
aF0
aa(lp1412
F1
aF0
aF0
aF0
aF0
aF0
aF0
aF0
aF0
aF0
aF0
aF0
aF0
aF0
aF0
aF0
aa(lp1413
F1
aF0
aF0
aF0
aF0
aF0
aF0
aF0
aF0
aF0
aF0
aF0
aF0
aF0
aF0
aF0
aasbsS'A1'
p1414
(iclusterfk.Mantis
MantisState
p1415
(dp1416
g8
I0
sg9
g1414
sg10
Nsg11
(lp1417
I1
aI0
aI0
aI0
aI0
aI1
aI2
aI0
aI0
aI0
aI1
aI0
aI2
aI0
aI0
aI0
asg13
(lp1418
(lp1419
(lp1420
I1
aI3
aI4
aI5
aI6
aI7
aI9
aI10
aI11
aI12
aI13
aI14
aI15
aa(lp1421
I0
aa(lp1422
I0
aa(lp1423
I0
aaa(lp1424
(lp1425
I0
aa(lp1426
I1
aI3
aI4
aI5
aI6
aI7
aI9
aI10
aI11
aI12
aI13
aI14
aI15
aa(lp1427
I10
aI13
aI5
aI15
aa(lp1428
I10
aaa(lp1429
(lp1430
I10
aa(lp1431
I0
aa(lp1432
I1
aI3
aI4
aI5
aI6
aI7
aI9
aI10
aI11
aI12
aI13
aI14
aI15
aa(lp1433
I0
aaa(lp1434
(lp1435
I10
aI13
aI5
aI15
aa(lp1436
I0
aa(lp1437
I10
aa(lp1438
I0
aaasg35
(lp1439
(lp1440
F0
aF0.03125
aF0
aF0.0625
aF0.03125
aF0.0625
aF0.0625
aF0.125
aF0
aF0.03125
aF0.25
aF0.0625
aF0.03125
aF0.0625
aF0.0625
aF0.125
aa(lp1441
F1
aF0
aF0
aF0
aF0
aF0
aF0
aF0
aF0
aF0
aF0
aF0
aF0
aF0
aF0
aF0
aa(lp1442
F1
aF0
aF0
aF0
aF0
aF0
aF0
aF0
aF0
aF0
aF0
aF0
aF0
aF0
aF0
aF0
aa(lp1443
F1
aF0
aF0
aF0
aF0
aF0
aF0
aF0
aF0
aF0
aF0
aF0
aF0
aF0
aF0
aF0
aa(lp1444
F1
aF0
aF0
aF0
aF0
aF0
aF0
aF0
aF0
aF0
aF0
aF0
aF0
aF0
aF0
aF0
aa(lp1445
F0
aF0.03125
aF0
aF0.0625
aF0.03125
aF0.0625
aF0.0625
aF0.125
aF0
aF0.03125
aF0.25
aF0.0625
aF0.03125
aF0.0625
aF0.0625
aF0.125
aa(lp1446
F0
aF0
aF0
aF0
aF0
aF0.125
aF0
aF0
aF0
aF0
aF0.5
aF0
aF0
aF0.125
aF0
aF0.25
aa(lp1447
F0
aF0
aF0
aF0
aF0
aF0
aF0
aF0
aF0
aF0
aF1
aF0
aF0
aF0
aF0
aF0
aa(lp1448
F0
aF0
aF0
aF0
aF0
aF0
aF0
aF0
aF0
aF0
aF1
aF0
aF0
aF0
aF0
aF0
aa(lp1449
F1
aF0
aF0
aF0
aF0
aF0
aF0
aF0
aF0
aF0
aF0
aF0
aF0
aF0
aF0
aF0
aa(lp1450
F0
aF0.03125
aF0
aF0.0625
aF0.03125
aF0.0625
aF0.0625
aF0.125
aF0
aF0.03125
aF0.25
aF0.0625
aF0.03125
aF0.0625
aF0.0625
aF0.125
aa(lp1451
F1
aF0
aF0
aF0
aF0
aF0
aF0
aF0
aF0
aF0
aF0
aF0
aF0
aF0
aF0
aF0
aa(lp1452
F0
aF0
aF0
aF0
aF0
aF0.125
aF0
aF0
aF0
aF0
aF0.5
aF0
aF0
aF0.125
aF0
aF0.25
aa(lp1453
F1
aF0
aF0
aF0
aF0
aF0
aF0
aF0
aF0
aF0
aF0
aF0
aF0
aF0
aF0
aF0
aa(lp1454
F0
aF0
aF0
aF0
aF0
aF0
aF0
aF0
aF0
aF0
aF1
aF0
aF0
aF0
aF0
aF0
aa(lp1455
F1
aF0
aF0
aF0
aF0
aF0
aF0
aF0
aF0
aF0
aF0
aF0
aF0
aF0
aF0
aF0
aasbsS'A0'
p1456
(iclusterfk.Mantis
MantisState
p1457
(dp1458
g8
I0
sg9
g1456
sg10
Nsg11
(lp1459
I0
aI0
aI0
aI0
aI0
aI0
aI0
aI0
aI0
aI0
aI0
aI0
aI0
aI0
aI0
aI0
asg13
(lp1460
(lp1461
(lp1462
I10
aI13
aI5
aI15
aa(lp1463
I0
aa(lp1464
I0
aa(lp1465
I0
aaa(lp1466
(lp1467
I0
aa(lp1468
I10
aI13
aI5
aI15
aa(lp1469
I10
aI13
aI5
aI15
aa(lp1470
I10
aI5
aI13
aI15
aaa(lp1471
(lp1472
I10
aI5
aI13
aI15
aa(lp1473
I0
aa(lp1474
I0
aI15
aI5
aI7
aa(lp1475
I0
aaa(lp1476
(lp1477
I10
aI13
aI5
aI15
aa(lp1478
I0
aa(lp1479
I0
aI7
aI5
aI15
aa(lp1480
I0
aaasg35
(lp1481
(lp1482
F0
aF0
aF0
aF0
aF0
aF0
aF0
aF0
aF0
aF0
aF0
aF0
aF0
aF0
aF0
aF0
aa(lp1483
F0
aF0
aF0
aF0
aF0
aF0
aF0
aF0
aF0
aF0
aF0
aF0
aF0
aF0
aF0
aF0
aa(lp1484
F0
aF0
aF0
aF0
aF0
aF0
aF0
aF0
aF0
aF0
aF0
aF0
aF0
aF0
aF0
aF0
aa(lp1485
F0
aF0
aF0
aF0
aF0
aF0
aF0
aF0
aF0
aF0
aF0
aF0
aF0
aF0
aF0
aF0
aa(lp1486
F0
aF0
aF0
aF0
aF0
aF0
aF0
aF0
aF0
aF0
aF0
aF0
aF0
aF0
aF0
aF0
aa(lp1487
F0
aF0
aF0
aF0
aF0
aF0
aF0
aF0
aF0
aF0
aF0
aF0
aF0
aF0
aF0
aF0
aa(lp1488
F0
aF0
aF0
aF0
aF0
aF0
aF0
aF0
aF0
aF0
aF0
aF0
aF0
aF0
aF0
aF0
aa(lp1489
F0
aF0
aF0
aF0
aF0
aF0
aF0
aF0
aF0
aF0
aF0
aF0
aF0
aF0
aF0
aF0
aa(lp1490
F0
aF0
aF0
aF0
aF0
aF0
aF0
aF0
aF0
aF0
aF0
aF0
aF0
aF0
aF0
aF0
aa(lp1491
F0
aF0
aF0
aF0
aF0
aF0
aF0
aF0
aF0
aF0
aF0
aF0
aF0
aF0
aF0
aF0
aa(lp1492
F0
aF0
aF0
aF0
aF0
aF0
aF0
aF0
aF0
aF0
aF0
aF0
aF0
aF0
aF0
aF0
aa(lp1493
F0
aF0
aF0
aF0
aF0
aF0
aF0
aF0
aF0
aF0
aF0
aF0
aF0
aF0
aF0
aF0
aa(lp1494
F0
aF0
aF0
aF0
aF0
aF0
aF0
aF0
aF0
aF0
aF0
aF0
aF0
aF0
aF0
aF0
aa(lp1495
F0
aF0
aF0
aF0
aF0
aF0
aF0
aF0
aF0
aF0
aF0
aF0
aF0
aF0
aF0
aF0
aa(lp1496
F0
aF0
aF0
aF0
aF0
aF0
aF0
aF0
aF0
aF0
aF0
aF0
aF0
aF0
aF0
aF0
aa(lp1497
F0
aF0
aF0
aF0
aF0
aF0
aF0
aF0
aF0
aF0
aF0
aF0
aF0
aF0
aF0
aF0
aasbsS'A3'
p1498
(iclusterfk.Mantis
MantisState
p1499
(dp1500
g8
I0
sg9
g1498
sg10
Nsg11
(lp1501
I0
aI0
aI0
aI0
aI0
aI0
aI0
aI0
aI0
aI0
aI0
aI0
aI0
aI0
aI0
aI0
asg13
(lp1502
(lp1503
(lp1504
I0
aa(lp1505
I0
aa(lp1506
I0
aa(lp1507
I0
aaa(lp1508
(lp1509
I0
aa(lp1510
I0
aa(lp1511
I10
aa(lp1512
I0
aaa(lp1513
(lp1514
I0
aa(lp1515
I0
aa(lp1516
I10
aa(lp1517
I0
aaa(lp1518
(lp1519
I0
aa(lp1520
I0
aa(lp1521
I0
aa(lp1522
I0
aaasg35
(lp1523
(lp1524
F1
aF0
aF0
aF0
aF0
aF0
aF0
aF0
aF0
aF0
aF0
aF0
aF0
aF0
aF0
aF0
aa(lp1525
F1
aF0
aF0
aF0
aF0
aF0
aF0
aF0
aF0
aF0
aF0
aF0
aF0
aF0
aF0
aF0
aa(lp1526
F1
aF0
aF0
aF0
aF0
aF0
aF0
aF0
aF0
aF0
aF0
aF0
aF0
aF0
aF0
aF0
aa(lp1527
F1
aF0
aF0
aF0
aF0
aF0
aF0
aF0
aF0
aF0
aF0
aF0
aF0
aF0
aF0
aF0
aa(lp1528
F1
aF0
aF0
aF0
aF0
aF0
aF0
aF0
aF0
aF0
aF0
aF0
aF0
aF0
aF0
aF0
aa(lp1529
F1
aF0
aF0
aF0
aF0
aF0
aF0
aF0
aF0
aF0
aF0
aF0
aF0
aF0
aF0
aF0
aa(lp1530
F0
aF0
aF0
aF0
aF0
aF0
aF0
aF0
aF0
aF0
aF1
aF0
aF0
aF0
aF0
aF0
aa(lp1531
F1
aF0
aF0
aF0
aF0
aF0
aF0
aF0
aF0
aF0
aF0
aF0
aF0
aF0
aF0
aF0
aa(lp1532
F1
aF0
aF0
aF0
aF0
aF0
aF0
aF0
aF0
aF0
aF0
aF0
aF0
aF0
aF0
aF0
aa(lp1533
F1
aF0
aF0
aF0
aF0
aF0
aF0
aF0
aF0
aF0
aF0
aF0
aF0
aF0
aF0
aF0
aa(lp1534
F0
aF0
aF0
aF0
aF0
aF0
aF0
aF0
aF0
aF0
aF1
aF0
aF0
aF0
aF0
aF0
aa(lp1535
F1
aF0
aF0
aF0
aF0
aF0
aF0
aF0
aF0
aF0
aF0
aF0
aF0
aF0
aF0
aF0
aa(lp1536
F1
aF0
aF0
aF0
aF0
aF0
aF0
aF0
aF0
aF0
aF0
aF0
aF0
aF0
aF0
aF0
aa(lp1537
F1
aF0
aF0
aF0
aF0
aF0
aF0
aF0
aF0
aF0
aF0
aF0
aF0
aF0
aF0
aF0
aa(lp1538
F1
aF0
aF0
aF0
aF0
aF0
aF0
aF0
aF0
aF0
aF0
aF0
aF0
aF0
aF0
aF0
aa(lp1539
F1
aF0
aF0
aF0
aF0
aF0
aF0
aF0
aF0
aF0
aF0
aF0
aF0
aF0
aF0
aF0
aasbsS'A2'
p1540
(iclusterfk.Mantis
MantisState
p1541
(dp1542
g8
I0
sg9
g1540
sg10
Nsg11
(lp1543
I0
aI0
aI0
aI3
aI0
aI0
aI0
aI0
aI0
aI0
aI0
aI0
aI3
aI0
aI0
aI0
asg13
(lp1544
(lp1545
(lp1546
I0
aa(lp1547
I0
aa(lp1548
I10
aa(lp1549
I10
aI15
aI5
aI13
aaa(lp1550
(lp1551
I0
aa(lp1552
I0
aa(lp1553
I10
aa(lp1554
I0
aaa(lp1555
(lp1556
I0
aa(lp1557
I0
aa(lp1558
I0
aa(lp1559
I0
aaa(lp1560
(lp1561
I10
aI15
aI5
aI13
aa(lp1562
I0
aa(lp1563
I0
aa(lp1564
I0
aaasg35
(lp1565
(lp1566
F1
aF0
aF0
aF0
aF0
aF0
aF0
aF0
aF0
aF0
aF0
aF0
aF0
aF0
aF0
aF0
aa(lp1567
F1
aF0
aF0
aF0
aF0
aF0
aF0
aF0
aF0
aF0
aF0
aF0
aF0
aF0
aF0
aF0
aa(lp1568
F0
aF0
aF0
aF0
aF0
aF0
aF0
aF0
aF0
aF0
aF1
aF0
aF0
aF0
aF0
aF0
aa(lp1569
F0
aF0
aF0
aF0
aF0
aF0.25
aF0
aF0
aF0
aF0
aF0.25
aF0
aF0
aF0.25
aF0
aF0.25
aa(lp1570
F1
aF0
aF0
aF0
aF0
aF0
aF0
aF0
aF0
aF0
aF0
aF0
aF0
aF0
aF0
aF0
aa(lp1571
F1
aF0
aF0
aF0
aF0
aF0
aF0
aF0
aF0
aF0
aF0
aF0
aF0
aF0
aF0
aF0
aa(lp1572
F0
aF0
aF0
aF0
aF0
aF0
aF0
aF0
aF0
aF0
aF1
aF0
aF0
aF0
aF0
aF0
aa(lp1573
F1
aF0
aF0
aF0
aF0
aF0
aF0
aF0
aF0
aF0
aF0
aF0
aF0
aF0
aF0
aF0
aa(lp1574
F1
aF0
aF0
aF0
aF0
aF0
aF0
aF0
aF0
aF0
aF0
aF0
aF0
aF0
aF0
aF0
aa(lp1575
F1
aF0
aF0
aF0
aF0
aF0
aF0
aF0
aF0
aF0
aF0
aF0
aF0
aF0
aF0
aF0
aa(lp1576
F1
aF0
aF0
aF0
aF0
aF0
aF0
aF0
aF0
aF0
aF0
aF0
aF0
aF0
aF0
aF0
aa(lp1577
F1
aF0
aF0
aF0
aF0
aF0
aF0
aF0
aF0
aF0
aF0
aF0
aF0
aF0
aF0
aF0
aa(lp1578
F0
aF0
aF0
aF0
aF0
aF0.24553950722175022
aF0
aF0
aF0
aF0
aF0.25148683092608326
aF0
aF0
aF0.25148683092608326
aF0
aF0.25148683092608326
aa(lp1579
F1
aF0
aF0
aF0
aF0
aF0
aF0
aF0
aF0
aF0
aF0
aF0
aF0
aF0
aF0
aF0
aa(lp1580
F1
aF0
aF0
aF0
aF0
aF0
aF0
aF0
aF0
aF0
aF0
aF0
aF0
aF0
aF0
aF0
aa(lp1581
F1
aF0
aF0
aF0
aF0
aF0
aF0
aF0
aF0
aF0
aF0
aF0
aF0
aF0
aF0
aF0
aasbsS'A5'
p1582
(iclusterfk.Mantis
MantisState
p1583
(dp1584
g8
I0
sg9
g1582
sg10
Nsg11
(lp1585
I0
aI0
aI0
aI0
aI0
aI0
aI0
aI0
aI0
aI0
aI0
aI0
aI0
aI0
aI0
aI0
asg13
(lp1586
(lp1587
(lp1588
I0
aa(lp1589
I0
aa(lp1590
I0
aa(lp1591
I0
aaa(lp1592
(lp1593
I0
aa(lp1594
I0
aa(lp1595
I0
aa(lp1596
I0
aaa(lp1597
(lp1598
I0
aa(lp1599
I0
aa(lp1600
I0
aa(lp1601
I0
aaa(lp1602
(lp1603
I0
aa(lp1604
I0
aa(lp1605
I0
aa(lp1606
I0
aaasg35
(lp1607
(lp1608
F1
aF0
aF0
aF0
aF0
aF0
aF0
aF0
aF0
aF0
aF0
aF0
aF0
aF0
aF0
aF0
aa(lp1609
F1
aF0
aF0
aF0
aF0
aF0
aF0
aF0
aF0
aF0
aF0
aF0
aF0
aF0
aF0
aF0
aa(lp1610
F1
aF0
aF0
aF0
aF0
aF0
aF0
aF0
aF0
aF0
aF0
aF0
aF0
aF0
aF0
aF0
aa(lp1611
F1
aF0
aF0
aF0
aF0
aF0
aF0
aF0
aF0
aF0
aF0
aF0
aF0
aF0
aF0
aF0
aa(lp1612
F1
aF0
aF0
aF0
aF0
aF0
aF0
aF0
aF0
aF0
aF0
aF0
aF0
aF0
aF0
aF0
aa(lp1613
F1
aF0
aF0
aF0
aF0
aF0
aF0
aF0
aF0
aF0
aF0
aF0
aF0
aF0
aF0
aF0
aa(lp1614
F1
aF0
aF0
aF0
aF0
aF0
aF0
aF0
aF0
aF0
aF0
aF0
aF0
aF0
aF0
aF0
aa(lp1615
F1
aF0
aF0
aF0
aF0
aF0
aF0
aF0
aF0
aF0
aF0
aF0
aF0
aF0
aF0
aF0
aa(lp1616
F1
aF0
aF0
aF0
aF0
aF0
aF0
aF0
aF0
aF0
aF0
aF0
aF0
aF0
aF0
aF0
aa(lp1617
F1
aF0
aF0
aF0
aF0
aF0
aF0
aF0
aF0
aF0
aF0
aF0
aF0
aF0
aF0
aF0
aa(lp1618
F1
aF0
aF0
aF0
aF0
aF0
aF0
aF0
aF0
aF0
aF0
aF0
aF0
aF0
aF0
aF0
aa(lp1619
F1
aF0
aF0
aF0
aF0
aF0
aF0
aF0
aF0
aF0
aF0
aF0
aF0
aF0
aF0
aF0
aa(lp1620
F1
aF0
aF0
aF0
aF0
aF0
aF0
aF0
aF0
aF0
aF0
aF0
aF0
aF0
aF0
aF0
aa(lp1621
F1
aF0
aF0
aF0
aF0
aF0
aF0
aF0
aF0
aF0
aF0
aF0
aF0
aF0
aF0
aF0
aa(lp1622
F1
aF0
aF0
aF0
aF0
aF0
aF0
aF0
aF0
aF0
aF0
aF0
aF0
aF0
aF0
aF0
aa(lp1623
F1
aF0
aF0
aF0
aF0
aF0
aF0
aF0
aF0
aF0
aF0
aF0
aF0
aF0
aF0
aF0
aasbsS'A4'
p1624
(iclusterfk.Mantis
MantisState
p1625
(dp1626
g8
I0
sg9
g1624
sg10
Nsg11
(lp1627
I0
aI0
aI0
aI0
aI0
aI0
aI0
aI0
aI0
aI0
aI0
aI0
aI0
aI0
aI0
aI0
asg13
(lp1628
(lp1629
(lp1630
I10
aa(lp1631
I0
aa(lp1632
I0
aa(lp1633
I0
aaa(lp1634
(lp1635
I10
aa(lp1636
I0
aa(lp1637
I0
aa(lp1638
I0
aaa(lp1639
(lp1640
I0
aa(lp1641
I0
aa(lp1642
I0
aa(lp1643
I0
aaa(lp1644
(lp1645
I0
aa(lp1646
I0
aa(lp1647
I0
aa(lp1648
I0
aaasg35
(lp1649
(lp1650
F0
aF0
aF0
aF0
aF0
aF0
aF0
aF0
aF0
aF0
aF1
aF0
aF0
aF0
aF0
aF0
aa(lp1651
F1
aF0
aF0
aF0
aF0
aF0
aF0
aF0
aF0
aF0
aF0
aF0
aF0
aF0
aF0
aF0
aa(lp1652
F1
aF0
aF0
aF0
aF0
aF0
aF0
aF0
aF0
aF0
aF0
aF0
aF0
aF0
aF0
aF0
aa(lp1653
F1
aF0
aF0
aF0
aF0
aF0
aF0
aF0
aF0
aF0
aF0
aF0
aF0
aF0
aF0
aF0
aa(lp1654
F0
aF0
aF0
aF0
aF0
aF0
aF0
aF0
aF0
aF0
aF1
aF0
aF0
aF0
aF0
aF0
aa(lp1655
F1
aF0
aF0
aF0
aF0
aF0
aF0
aF0
aF0
aF0
aF0
aF0
aF0
aF0
aF0
aF0
aa(lp1656
F1
aF0
aF0
aF0
aF0
aF0
aF0
aF0
aF0
aF0
aF0
aF0
aF0
aF0
aF0
aF0
aa(lp1657
F1
aF0
aF0
aF0
aF0
aF0
aF0
aF0
aF0
aF0
aF0
aF0
aF0
aF0
aF0
aF0
aa(lp1658
F1
aF0
aF0
aF0
aF0
aF0
aF0
aF0
aF0
aF0
aF0
aF0
aF0
aF0
aF0
aF0
aa(lp1659
F1
aF0
aF0
aF0
aF0
aF0
aF0
aF0
aF0
aF0
aF0
aF0
aF0
aF0
aF0
aF0
aa(lp1660
F1
aF0
aF0
aF0
aF0
aF0
aF0
aF0
aF0
aF0
aF0
aF0
aF0
aF0
aF0
aF0
aa(lp1661
F1
aF0
aF0
aF0
aF0
aF0
aF0
aF0
aF0
aF0
aF0
aF0
aF0
aF0
aF0
aF0
aa(lp1662
F1
aF0
aF0
aF0
aF0
aF0
aF0
aF0
aF0
aF0
aF0
aF0
aF0
aF0
aF0
aF0
aa(lp1663
F1
aF0
aF0
aF0
aF0
aF0
aF0
aF0
aF0
aF0
aF0
aF0
aF0
aF0
aF0
aF0
aa(lp1664
F1
aF0
aF0
aF0
aF0
aF0
aF0
aF0
aF0
aF0
aF0
aF0
aF0
aF0
aF0
aF0
aa(lp1665
F1
aF0
aF0
aF0
aF0
aF0
aF0
aF0
aF0
aF0
aF0
aF0
aF0
aF0
aF0
aF0
aasbsS'A7'
p1666
(iclusterfk.Mantis
MantisState
p1667
(dp1668
g8
I0
sg9
g1666
sg10
(dp1669
(I13
I7
I8
I2
tp1670
(dp1671
(I0
I0
I0
I0
tp1672
F1
ss(I0
I10
I5
I15
tp1673
(dp1674
(I0
I0
I0
I0
tp1675
F1
ss(I6
I12
I3
I9
tp1676
(dp1677
(I0
I0
I0
I0
tp1678
F1
ss(I11
I1
I14
I4
tp1679
(dp1680
(I0
I0
I0
I0
tp1681
F1
sssg11
(lp1682
I0
aI0
aI0
aI0
aI0
aI0
aI0
aI0
aI0
aI0
aI0
aI0
aI0
aI0
aI0
aI0
asg13
(lp1683
(lp1684
(lp1685
I0
aa(lp1686
I0
aa(lp1687
I0
aa(lp1688
I0
aaa(lp1689
(lp1690
I0
aa(lp1691
I0
aa(lp1692
I0
aa(lp1693
I0
aaa(lp1694
(lp1695
I0
aa(lp1696
I0
aa(lp1697
I0
aa(lp1698
I0
aaa(lp1699
(lp1700
I0
aa(lp1701
I0
aa(lp1702
I0
aa(lp1703
I0
aaasg35
(lp1704
(lp1705
F1
aF0
aF0
aF0
aF0
aF0
aF0
aF0
aF0
aF0
aF0
aF0
aF0
aF0
aF0
aF0
aa(lp1706
F1
aF0
aF0
aF0
aF0
aF0
aF0
aF0
aF0
aF0
aF0
aF0
aF0
aF0
aF0
aF0
aa(lp1707
F1
aF0
aF0
aF0
aF0
aF0
aF0
aF0
aF0
aF0
aF0
aF0
aF0
aF0
aF0
aF0
aa(lp1708
F1
aF0
aF0
aF0
aF0
aF0
aF0
aF0
aF0
aF0
aF0
aF0
aF0
aF0
aF0
aF0
aa(lp1709
F1
aF0
aF0
aF0
aF0
aF0
aF0
aF0
aF0
aF0
aF0
aF0
aF0
aF0
aF0
aF0
aa(lp1710
F1
aF0
aF0
aF0
aF0
aF0
aF0
aF0
aF0
aF0
aF0
aF0
aF0
aF0
aF0
aF0
aa(lp1711
F1
aF0
aF0
aF0
aF0
aF0
aF0
aF0
aF0
aF0
aF0
aF0
aF0
aF0
aF0
aF0
aa(lp1712
F1
aF0
aF0
aF0
aF0
aF0
aF0
aF0
aF0
aF0
aF0
aF0
aF0
aF0
aF0
aF0
aa(lp1713
F1
aF0
aF0
aF0
aF0
aF0
aF0
aF0
aF0
aF0
aF0
aF0
aF0
aF0
aF0
aF0
aa(lp1714
F1
aF0
aF0
aF0
aF0
aF0
aF0
aF0
aF0
aF0
aF0
aF0
aF0
aF0
aF0
aF0
aa(lp1715
F1
aF0
aF0
aF0
aF0
aF0
aF0
aF0
aF0
aF0
aF0
aF0
aF0
aF0
aF0
aF0
aa(lp1716
F1
aF0
aF0
aF0
aF0
aF0
aF0
aF0
aF0
aF0
aF0
aF0
aF0
aF0
aF0
aF0
aa(lp1717
F1
aF0
aF0
aF0
aF0
aF0
aF0
aF0
aF0
aF0
aF0
aF0
aF0
aF0
aF0
aF0
aa(lp1718
F1
aF0
aF0
aF0
aF0
aF0
aF0
aF0
aF0
aF0
aF0
aF0
aF0
aF0
aF0
aF0
aa(lp1719
F1
aF0
aF0
aF0
aF0
aF0
aF0
aF0
aF0
aF0
aF0
aF0
aF0
aF0
aF0
aF0
aa(lp1720
F1
aF0
aF0
aF0
aF0
aF0
aF0
aF0
aF0
aF0
aF0
aF0
aF0
aF0
aF0
aF0
aasbsS'A6'
p1721
(iclusterfk.Mantis
MantisState
p1722
(dp1723
g8
I0
sg9
g1721
sg10
Nsg11
(lp1724
I0
aI7
aI0
aI0
aI0
aI0
aI0
aI0
aI0
aI0
aI0
aI0
aI0
aI7
aI0
aI0
asg13
(lp1725
(lp1726
(lp1727
I0
aa(lp1728
I10
aI5
aI13
aI15
aa(lp1729
I0
aa(lp1730
I0
aaa(lp1731
(lp1732
I0
aa(lp1733
I0
aa(lp1734
I0
aa(lp1735
I0
aaa(lp1736
(lp1737
I0
aa(lp1738
I0
aa(lp1739
I0
aa(lp1740
I0
aaa(lp1741
(lp1742
I0
aa(lp1743
I10
aI5
aI13
aI15
aa(lp1744
I0
aa(lp1745
I0
aaasg35
(lp1746
(lp1747
F1
aF0
aF0
aF0
aF0
aF0
aF0
aF0
aF0
aF0
aF0
aF0
aF0
aF0
aF0
aF0
aa(lp1748
F0
aF0
aF0
aF0
aF0
aF0.25
aF0
aF0
aF0
aF0
aF0.25
aF0
aF0
aF0.25
aF0
aF0.25
aa(lp1749
F1
aF0
aF0
aF0
aF0
aF0
aF0
aF0
aF0
aF0
aF0
aF0
aF0
aF0
aF0
aF0
aa(lp1750
F1
aF0
aF0
aF0
aF0
aF0
aF0
aF0
aF0
aF0
aF0
aF0
aF0
aF0
aF0
aF0
aa(lp1751
F1
aF0
aF0
aF0
aF0
aF0
aF0
aF0
aF0
aF0
aF0
aF0
aF0
aF0
aF0
aF0
aa(lp1752
F1
aF0
aF0
aF0
aF0
aF0
aF0
aF0
aF0
aF0
aF0
aF0
aF0
aF0
aF0
aF0
aa(lp1753
F1
aF0
aF0
aF0
aF0
aF0
aF0
aF0
aF0
aF0
aF0
aF0
aF0
aF0
aF0
aF0
aa(lp1754
F1
aF0
aF0
aF0
aF0
aF0
aF0
aF0
aF0
aF0
aF0
aF0
aF0
aF0
aF0
aF0
aa(lp1755
F1
aF0
aF0
aF0
aF0
aF0
aF0
aF0
aF0
aF0
aF0
aF0
aF0
aF0
aF0
aF0
aa(lp1756
F1
aF0
aF0
aF0
aF0
aF0
aF0
aF0
aF0
aF0
aF0
aF0
aF0
aF0
aF0
aF0
aa(lp1757
F1
aF0
aF0
aF0
aF0
aF0
aF0
aF0
aF0
aF0
aF0
aF0
aF0
aF0
aF0
aF0
aa(lp1758
F1
aF0
aF0
aF0
aF0
aF0
aF0
aF0
aF0
aF0
aF0
aF0
aF0
aF0
aF0
aF0
aa(lp1759
F1
aF0
aF0
aF0
aF0
aF0
aF0
aF0
aF0
aF0
aF0
aF0
aF0
aF0
aF0
aF0
aa(lp1760
F0
aF0
aF0
aF0
aF0
aF0.25
aF0
aF0
aF0
aF0
aF0.25
aF0
aF0
aF0.25
aF0
aF0.25
aa(lp1761
F1
aF0
aF0
aF0
aF0
aF0
aF0
aF0
aF0
aF0
aF0
aF0
aF0
aF0
aF0
aF0
aa(lp1762
F1
aF0
aF0
aF0
aF0
aF0
aF0
aF0
aF0
aF0
aF0
aF0
aF0
aF0
aF0
aF0
aasbsS'A9'
p1763
(iclusterfk.Mantis
MantisState
p1764
(dp1765
g8
I0
sg9
g1763
sg10
(dp1766
(I13
I7
I8
I2
tp1767
(dp1768
(I0
I0
I0
I0
tp1769
F1
ss(I0
I10
I5
I15
tp1770
(dp1771
(I0
I10
I0
I0
tp1772
F1
ss(I6
I12
I3
I9
tp1773
(dp1774
(I10
I0
I0
I0
tp1775
F1
ss(I11
I1
I14
I4
tp1776
(dp1777
(I0
I0
I0
I0
tp1778
F1
sssg11
(lp1779
I0
aI0
aI0
aI0
aI0
aI0
aI0
aI0
aI0
aI0
aI0
aI0
aI0
aI0
aI0
aI0
asg13
(lp1780
(lp1781
(lp1782
I0
aa(lp1783
I0
aa(lp1784
I0
aa(lp1785
I0
aaa(lp1786
(lp1787
I0
aa(lp1788
I0
aa(lp1789
I10
aa(lp1790
I0
aaa(lp1791
(lp1792
I0
aa(lp1793
I0
aa(lp1794
I10
aa(lp1795
I0
aaa(lp1796
(lp1797
I0
aa(lp1798
I0
aa(lp1799
I0
aa(lp1800
I0
aaasg35
(lp1801
(lp1802
F1
aF0
aF0
aF0
aF0
aF0
aF0
aF0
aF0
aF0
aF0
aF0
aF0
aF0
aF0
aF0
aa(lp1803
F1
aF0
aF0
aF0
aF0
aF0
aF0
aF0
aF0
aF0
aF0
aF0
aF0
aF0
aF0
aF0
aa(lp1804
F1
aF0
aF0
aF0
aF0
aF0
aF0
aF0
aF0
aF0
aF0
aF0
aF0
aF0
aF0
aF0
aa(lp1805
F1
aF0
aF0
aF0
aF0
aF0
aF0
aF0
aF0
aF0
aF0
aF0
aF0
aF0
aF0
aF0
aa(lp1806
F1
aF0
aF0
aF0
aF0
aF0
aF0
aF0
aF0
aF0
aF0
aF0
aF0
aF0
aF0
aF0
aa(lp1807
F1
aF0
aF0
aF0
aF0
aF0
aF0
aF0
aF0
aF0
aF0
aF0
aF0
aF0
aF0
aF0
aa(lp1808
F0
aF0
aF0
aF0
aF0
aF0
aF0
aF0
aF0
aF0
aF1
aF0
aF0
aF0
aF0
aF0
aa(lp1809
F1
aF0
aF0
aF0
aF0
aF0
aF0
aF0
aF0
aF0
aF0
aF0
aF0
aF0
aF0
aF0
aa(lp1810
F1
aF0
aF0
aF0
aF0
aF0
aF0
aF0
aF0
aF0
aF0
aF0
aF0
aF0
aF0
aF0
aa(lp1811
F1
aF0
aF0
aF0
aF0
aF0
aF0
aF0
aF0
aF0
aF0
aF0
aF0
aF0
aF0
aF0
aa(lp1812
F0
aF0
aF0
aF0
aF0
aF0
aF0
aF0
aF0
aF0
aF1
aF0
aF0
aF0
aF0
aF0
aa(lp1813
F1
aF0
aF0
aF0
aF0
aF0
aF0
aF0
aF0
aF0
aF0
aF0
aF0
aF0
aF0
aF0
aa(lp1814
F1
aF0
aF0
aF0
aF0
aF0
aF0
aF0
aF0
aF0
aF0
aF0
aF0
aF0
aF0
aF0
aa(lp1815
F1
aF0
aF0
aF0
aF0
aF0
aF0
aF0
aF0
aF0
aF0
aF0
aF0
aF0
aF0
aF0
aa(lp1816
F1
aF0
aF0
aF0
aF0
aF0
aF0
aF0
aF0
aF0
aF0
aF0
aF0
aF0
aF0
aF0
aa(lp1817
F1
aF0
aF0
aF0
aF0
aF0
aF0
aF0
aF0
aF0
aF0
aF0
aF0
aF0
aF0
aF0
aasbsS'A8'
p1818
(iclusterfk.Mantis
MantisState
p1819
(dp1820
g8
I0
sg9
g1818
sg10
(dp1821
(I13
I7
I8
I2
tp1822
(dp1823
(I0
I0
I0
I0
tp1824
F1
ss(I0
I10
I5
I15
tp1825
(dp1826
(I10
I0
I0
I0
tp1827
F1
ss(I6
I12
I3
I9
tp1828
(dp1829
(I0
I0
I0
I0
tp1830
F1
ss(I11
I1
I14
I4
tp1831
(dp1832
(I0
I0
I0
I10
tp1833
F1
sssg11
(lp1834
I0
aI0
aI0
aI0
aI0
aI0
aI0
aI0
aI0
aI0
aI0
aI0
aI0
aI0
aI0
aI0
asg13
(lp1835
(lp1836
(lp1837
I10
aa(lp1838
I0
aa(lp1839
I0
aa(lp1840
I0
aaa(lp1841
(lp1842
I10
aa(lp1843
I0
aa(lp1844
I0
aa(lp1845
I0
aaa(lp1846
(lp1847
I0
aa(lp1848
I0
aa(lp1849
I0
aa(lp1850
I0
aaa(lp1851
(lp1852
I0
aa(lp1853
I0
aa(lp1854
I0
aa(lp1855
I0
aaasg35
(lp1856
(lp1857
F0
aF0
aF0
aF0
aF0
aF0
aF0
aF0
aF0
aF0
aF1
aF0
aF0
aF0
aF0
aF0
aa(lp1858
F1
aF0
aF0
aF0
aF0
aF0
aF0
aF0
aF0
aF0
aF0
aF0
aF0
aF0
aF0
aF0
aa(lp1859
F1
aF0
aF0
aF0
aF0
aF0
aF0
aF0
aF0
aF0
aF0
aF0
aF0
aF0
aF0
aF0
aa(lp1860
F1
aF0
aF0
aF0
aF0
aF0
aF0
aF0
aF0
aF0
aF0
aF0
aF0
aF0
aF0
aF0
aa(lp1861
F0
aF0
aF0
aF0
aF0
aF0
aF0
aF0
aF0
aF0
aF1
aF0
aF0
aF0
aF0
aF0
aa(lp1862
F1
aF0
aF0
aF0
aF0
aF0
aF0
aF0
aF0
aF0
aF0
aF0
aF0
aF0
aF0
aF0
aa(lp1863
F1
aF0
aF0
aF0
aF0
aF0
aF0
aF0
aF0
aF0
aF0
aF0
aF0
aF0
aF0
aF0
aa(lp1864
F1
aF0
aF0
aF0
aF0
aF0
aF0
aF0
aF0
aF0
aF0
aF0
aF0
aF0
aF0
aF0
aa(lp1865
F1
aF0
aF0
aF0
aF0
aF0
aF0
aF0
aF0
aF0
aF0
aF0
aF0
aF0
aF0
aF0
aa(lp1866
F1
aF0
aF0
aF0
aF0
aF0
aF0
aF0
aF0
aF0
aF0
aF0
aF0
aF0
aF0
aF0
aa(lp1867
F1
aF0
aF0
aF0
aF0
aF0
aF0
aF0
aF0
aF0
aF0
aF0
aF0
aF0
aF0
aF0
aa(lp1868
F1
aF0
aF0
aF0
aF0
aF0
aF0
aF0
aF0
aF0
aF0
aF0
aF0
aF0
aF0
aF0
aa(lp1869
F1
aF0
aF0
aF0
aF0
aF0
aF0
aF0
aF0
aF0
aF0
aF0
aF0
aF0
aF0
aF0
aa(lp1870
F1
aF0
aF0
aF0
aF0
aF0
aF0
aF0
aF0
aF0
aF0
aF0
aF0
aF0
aF0
aF0
aa(lp1871
F1
aF0
aF0
aF0
aF0
aF0
aF0
aF0
aF0
aF0
aF0
aF0
aF0
aF0
aF0
aF0
aa(lp1872
F1
aF0
aF0
aF0
aF0
aF0
aF0
aF0
aF0
aF0
aF0
aF0
aF0
aF0
aF0
aF0
aasbsS'P8'
p1873
(iclusterfk.Mantis
MantisState
p1874
(dp1875
g8
I0
sg9
g1873
sg10
(dp1876
g1822
(dp1877
g946
F1
ssg1828
(dp1878
g952
F1
ssg1831
(dp1879
g949
F1
ssg1825
(dp1880
g943
F1
sssg11
(lp1881
I0
aI0
aI0
aI0
aI0
aI0
aI0
aI0
aI0
aI0
aI0
aI0
aI0
aI0
aI0
aI0
asg13
(lp1882
(lp1883
g956
ag962
ag974
ag968
aa(lp1884
g972
ag966
ag958
ag964
aa(lp1885
g969
ag973
ag961
ag957
aa(lp1886
g963
ag959
ag967
ag971
aasg35
(lp1887
(lp1888
F1
aF0
aF0
aF0
aF0
aF0
aF0
aF0
aF0
aF0
aF0
aF0
aF0
aF0
aF0
aF0
aa(lp1889
F1
aF0
aF0
aF0
aF0
aF0
aF0
aF0
aF0
aF0
aF0
aF0
aF0
aF0
aF0
aF0
aa(lp1890
F1
aF0
aF0
aF0
aF0
aF0
aF0
aF0
aF0
aF0
aF0
aF0
aF0
aF0
aF0
aF0
aa(lp1891
F1
aF0
aF0
aF0
aF0
aF0
aF0
aF0
aF0
aF0
aF0
aF0
aF0
aF0
aF0
aF0
aa(lp1892
F1
aF0
aF0
aF0
aF0
aF0
aF0
aF0
aF0
aF0
aF0
aF0
aF0
aF0
aF0
aF0
aa(lp1893
F1
aF0
aF0
aF0
aF0
aF0
aF0
aF0
aF0
aF0
aF0
aF0
aF0
aF0
aF0
aF0
aa(lp1894
F1
aF0
aF0
aF0
aF0
aF0
aF0
aF0
aF0
aF0
aF0
aF0
aF0
aF0
aF0
aF0
aa(lp1895
F1
aF0
aF0
aF0
aF0
aF0
aF0
aF0
aF0
aF0
aF0
aF0
aF0
aF0
aF0
aF0
aa(lp1896
F1
aF0
aF0
aF0
aF0
aF0
aF0
aF0
aF0
aF0
aF0
aF0
aF0
aF0
aF0
aF0
aa(lp1897
F1
aF0
aF0
aF0
aF0
aF0
aF0
aF0
aF0
aF0
aF0
aF0
aF0
aF0
aF0
aF0
aa(lp1898
F1
aF0
aF0
aF0
aF0
aF0
aF0
aF0
aF0
aF0
aF0
aF0
aF0
aF0
aF0
aF0
aa(lp1899
F1
aF0
aF0
aF0
aF0
aF0
aF0
aF0
aF0
aF0
aF0
aF0
aF0
aF0
aF0
aF0
aa(lp1900
F1
aF0
aF0
aF0
aF0
aF0
aF0
aF0
aF0
aF0
aF0
aF0
aF0
aF0
aF0
aF0
aa(lp1901
F1
aF0
aF0
aF0
aF0
aF0
aF0
aF0
aF0
aF0
aF0
aF0
aF0
aF0
aF0
aF0
aa(lp1902
F1
aF0
aF0
aF0
aF0
aF0
aF0
aF0
aF0
aF0
aF0
aF0
aF0
aF0
aF0
aF0
aa(lp1903
F1
aF0
aF0
aF0
aF0
aF0
aF0
aF0
aF0
aF0
aF0
aF0
aF0
aF0
aF0
aF0
aasbsS'P2'
p1904
(iclusterfk.Mantis
MantisState
p1905
(dp1906
g8
I0
sg9
g1904
sg10
Nsg11
(lp1907
I0
aI0
aI0
aI3
aI0
aI0
aI0
aI0
aI0
aI0
aI0
aI0
aI3
aI0
aI0
aI0
asg13
(lp1908
(lp1909
g846
ag852
ag864
a(lp1910
I10
aI15
aI13
aI5
aaa(lp1911
g862
ag856
a(lp1912
I0
aag854
aa(lp1913
g859
a(lp1914
I0
aag851
ag847
aa(lp1915
(lp1916
I10
aI15
aI13
aI5
aag849
ag857
ag861
aasg35
(lp1917
g866
ag871
ag881
ag876
ag879
ag874
ag868
ag873
ag877
ag880
ag870
ag867
ag872
ag869
ag875
ag878
asbsS'P3'
p1918
(iclusterfk.Mantis
MantisState
p1919
(dp1920
g8
I0
sg9
g1918
sg10
Nsg11
(lp1921
I0
aI0
aI0
aI0
aI0
aI0
aI0
aI0
aI0
aI0
aI0
aI0
aI0
aI0
aI0
aI0
asg13
(lp1922
(lp1923
(lp1924
I10
aag810
ag822
ag816
aa(lp1925
g820
a(lp1926
I0
aag806
ag812
aa(lp1927
g817
ag821
a(lp1928
I10
aag805
aa(lp1929
g811
ag807
ag815
a(lp1930
I0
aaasg35
(lp1931
g824
ag829
ag839
ag834
ag837
ag832
ag826
ag831
ag835
ag838
ag828
ag825
ag830
ag827
ag833
ag836
asbsS'P1'
p1932
(iclusterfk.Mantis
MantisState
p1933
(dp1934
g8
I0
sg9
g1932
sg10
Nsg11
(lp1935
I1
aI0
aI0
aI0
aI0
aI1
aI2
aI0
aI0
aI0
aI1
aI0
aI2
aI0
aI0
aI0
asg13
(lp1936
(lp1937
(lp1938
I1
aI3
aI4
aI5
aI6
aI7
aI9
aI10
aI11
aI12
aI13
aI14
aI15
aag768
a(lp1939
I10
aa(lp1940
I0
aaa(lp1941
g778
a(lp1942
I1
aI3
aI4
aI5
aI6
aI7
aI9
aI10
aI11
aI12
aI13
aI14
aI15
aa(lp1943
I10
aI5
aI13
aI15
aa(lp1944
I10
aaa(lp1945
(lp1946
I10
aa(lp1947
I0
aa(lp1948
I1
aI3
aI4
aI5
aI6
aI7
aI9
aI10
aI11
aI12
aI13
aI14
aI15
aag763
aa(lp1949
(lp1950
I10
aI5
aI13
aI15
aa(lp1951
I0
aag773
a(lp1952
I0
aaasg35
(lp1953
g782
ag787
ag797
ag792
ag795
ag790
ag784
ag789
ag793
ag796
ag786
ag783
ag788
ag785
ag791
ag794
asbsS'P7'
p1954
(iclusterfk.Mantis
MantisState
p1955
(dp1956
g8
I0
sg9
g1954
sg10
(dp1957
g1670
(dp1958
g710
F1
ssg1676
(dp1959
g716
F1
ssg1679
(dp1960
g713
F1
ssg1673
(dp1961
g707
F1
sssg11
(lp1962
I0
aI0
aI0
aI0
aI0
aI0
aI0
aI0
aI0
aI0
aI0
aI0
aI0
aI0
aI0
aI0
asg13
(lp1963
(lp1964
g720
a(lp1965
I0
aag738
ag732
aa(lp1966
(lp1967
I10
aag730
ag722
ag728
aa(lp1968
g733
ag737
ag725
a(lp1969
I10
aaa(lp1970
g727
ag723
a(lp1971
I0
aag735
aasg35
(lp1972
(lp1973
F1
aF0
aF0
aF0
aF0
aF0
aF0
aF0
aF0
aF0
aF0
aF0
aF0
aF0
aF0
aF0
aa(lp1974
F1
aF0
aF0
aF0
aF0
aF0
aF0
aF0
aF0
aF0
aF0
aF0
aF0
aF0
aF0
aF0
aa(lp1975
F1
aF0
aF0
aF0
aF0
aF0
aF0
aF0
aF0
aF0
aF0
aF0
aF0
aF0
aF0
aF0
aa(lp1976
F1
aF0
aF0
aF0
aF0
aF0
aF0
aF0
aF0
aF0
aF0
aF0
aF0
aF0
aF0
aF0
aa(lp1977
F0
aF0
aF0
aF0
aF0
aF0
aF0
aF0
aF0
aF0
aF1
aF0
aF0
aF0
aF0
aF0
aa(lp1978
F1
aF0
aF0
aF0
aF0
aF0
aF0
aF0
aF0
aF0
aF0
aF0
aF0
aF0
aF0
aF0
aa(lp1979
F1
aF0
aF0
aF0
aF0
aF0
aF0
aF0
aF0
aF0
aF0
aF0
aF0
aF0
aF0
aF0
aa(lp1980
F1
aF0
aF0
aF0
aF0
aF0
aF0
aF0
aF0
aF0
aF0
aF0
aF0
aF0
aF0
aF0
aa(lp1981
F1
aF0
aF0
aF0
aF0
aF0
aF0
aF0
aF0
aF0
aF0
aF0
aF0
aF0
aF0
aF0
aa(lp1982
F1
aF0
aF0
aF0
aF0
aF0
aF0
aF0
aF0
aF0
aF0
aF0
aF0
aF0
aF0
aF0
aa(lp1983
F1
aF0
aF0
aF0
aF0
aF0
aF0
aF0
aF0
aF0
aF0
aF0
aF0
aF0
aF0
aF0
aa(lp1984
F0
aF0
aF0
aF0
aF0
aF0
aF0
aF0
aF0
aF0
aF1
aF0
aF0
aF0
aF0
aF0
aa(lp1985
F1
aF0
aF0
aF0
aF0
aF0
aF0
aF0
aF0
aF0
aF0
aF0
aF0
aF0
aF0
aF0
aa(lp1986
F1
aF0
aF0
aF0
aF0
aF0
aF0
aF0
aF0
aF0
aF0
aF0
aF0
aF0
aF0
aF0
aa(lp1987
F1
aF0
aF0
aF0
aF0
aF0
aF0
aF0
aF0
aF0
aF0
aF0
aF0
aF0
aF0
aF0
aa(lp1988
F1
aF0
aF0
aF0
aF0
aF0
aF0
aF0
aF0
aF0
aF0
aF0
aF0
aF0
aF0
aF0
aasbsS'P4'
p1989
(iclusterfk.Mantis
MantisState
p1990
(dp1991
g8
I0
sg9
g1989
sg10
Nsg11
(lp1992
I0
aI0
aI0
aI0
aI0
aI0
aI0
aI0
aI0
aI0
aI0
aI0
aI0
aI0
aI0
aI0
asg13
(lp1993
(lp1994
g665
ag671
ag683
ag677
aa(lp1995
g681
ag675
ag667
ag673
aa(lp1996
g678
ag682
ag670
ag666
aa(lp1997
g672
ag668
ag676
ag680
aasg35
(lp1998
g685
ag690
ag700
ag695
ag698
ag693
ag687
ag692
ag696
ag699
ag689
ag686
ag691
ag688
ag694
ag697
asbsS'P5'
p1999
(iclusterfk.Mantis
MantisState
p2000
(dp2001
g8
I0
sg9
g1999
sg10
Nsg11
(lp2002
I0
aI0
aI0
aI0
aI0
aI0
aI0
aI0
aI0
aI0
aI0
aI0
aI0
aI0
aI0
aI0
asg13
(lp2003
(lp2004
g623
a(lp2005
I0
aag641
ag635
aa(lp2006
(lp2007
I10
aag633
ag625
ag631
aa(lp2008
g636
ag640
ag628
a(lp2009
I10
aaa(lp2010
g630
ag626
a(lp2011
I0
aag638
aasg35
(lp2012
g643
ag648
ag658
ag653
ag656
ag651
ag645
ag650
ag654
ag657
ag647
ag644
ag649
ag646
ag652
ag655
asbsS'T4'
p2013
(iclusterfk.Mantis
MantisState
p2014
(dp2015
g8
I0
sg9
g2013
sg10
Nsg11
(lp2016
I0
aI0
aI0
aI0
aI0
aI0
aI0
aI0
aI0
aI0
aI0
aI0
aI0
aI0
aI0
aI0
asg13
(lp2017
(lp2018
(lp2019
I10
aa(lp2020
I0
aa(lp2021
I0
aa(lp2022
I0
aaa(lp2023
(lp2024
I10
aa(lp2025
I0
aa(lp2026
I0
aa(lp2027
I0
aaa(lp2028
(lp2029
I0
aa(lp2030
I0
aa(lp2031
I0
aa(lp2032
I0
aaa(lp2033
(lp2034
I0
aa(lp2035
I0
aa(lp2036
I0
aa(lp2037
I0
aaasg35
(lp2038
(lp2039
F0
aF0
aF0
aF0
aF0
aF0
aF0
aF0
aF0
aF0
aF0
aF0
aF0
aF0
aF0
aF0
aa(lp2040
F0
aF0
aF0
aF0
aF0
aF0
aF0
aF0
aF0
aF0
aF0
aF0
aF0
aF0
aF0
aF0
aa(lp2041
F0
aF0
aF0
aF0
aF0
aF0
aF0
aF0
aF0
aF0
aF0
aF0
aF0
aF0
aF0
aF0
aa(lp2042
F0
aF0
aF0
aF0
aF0
aF0
aF0
aF0
aF0
aF0
aF0
aF0
aF0
aF0
aF0
aF0
aa(lp2043
F0
aF0
aF0
aF0
aF0
aF0
aF0
aF0
aF0
aF0
aF0
aF0
aF0
aF0
aF0
aF0
aa(lp2044
F0
aF0
aF0
aF0
aF0
aF0
aF0
aF0
aF0
aF0
aF0
aF0
aF0
aF0
aF0
aF0
aa(lp2045
F0
aF0
aF0
aF0
aF0
aF0
aF0
aF0
aF0
aF0
aF0
aF0
aF0
aF0
aF0
aF0
aa(lp2046
F0
aF0
aF0
aF0
aF0
aF0
aF0
aF0
aF0
aF0
aF0
aF0
aF0
aF0
aF0
aF0
aa(lp2047
F0
aF0
aF0
aF0
aF0
aF0
aF0
aF0
aF0
aF0
aF0
aF0
aF0
aF0
aF0
aF0
aa(lp2048
F0
aF0
aF0
aF0
aF0
aF0
aF0
aF0
aF0
aF0
aF0
aF0
aF0
aF0
aF0
aF0
aa(lp2049
F0
aF0
aF0
aF0
aF0
aF0
aF0
aF0
aF0
aF0
aF0
aF0
aF0
aF0
aF0
aF0
aa(lp2050
F0
aF0
aF0
aF0
aF0
aF0
aF0
aF0
aF0
aF0
aF0
aF0
aF0
aF0
aF0
aF0
aa(lp2051
F0
aF0
aF0
aF0
aF0
aF0
aF0
aF0
aF0
aF0
aF0
aF0
aF0
aF0
aF0
aF0
aa(lp2052
F0
aF0
aF0
aF0
aF0
aF0
aF0
aF0
aF0
aF0
aF0
aF0
aF0
aF0
aF0
aF0
aa(lp2053
F0
aF0
aF0
aF0
aF0
aF0
aF0
aF0
aF0
aF0
aF0
aF0
aF0
aF0
aF0
aF0
aa(lp2054
F0
aF0
aF0
aF0
aF0
aF0
aF0
aF0
aF0
aF0
aF0
aF0
aF0
aF0
aF0
aF0
aasbsS'T5'
p2055
(iclusterfk.Mantis
MantisState
p2056
(dp2057
g8
I0
sg9
g2055
sg10
Nsg11
(lp2058
I0
aI0
aI0
aI0
aI0
aI0
aI0
aI0
aI0
aI0
aI0
aI0
aI0
aI0
aI0
aI0
asg13
(lp2059
(lp2060
g2026
ag2025
ag2036
ag2037
aa(lp2061
g2019
ag2020
ag2021
ag2022
aa(lp2062
g2027
ag2034
ag2035
ag2024
aa(lp2063
g2029
ag2030
ag2031
ag2032
aasg35
(lp2064
(lp2065
F0
aF0
aF0
aF0
aF0
aF0
aF0
aF0
aF0
aF0
aF0
aF0
aF0
aF0
aF0
aF0
aa(lp2066
F0
aF0
aF0
aF0
aF0
aF0
aF0
aF0
aF0
aF0
aF0
aF0
aF0
aF0
aF0
aF0
aa(lp2067
F0
aF0
aF0
aF0
aF0
aF0
aF0
aF0
aF0
aF0
aF0
aF0
aF0
aF0
aF0
aF0
aa(lp2068
F0
aF0
aF0
aF0
aF0
aF0
aF0
aF0
aF0
aF0
aF0
aF0
aF0
aF0
aF0
aF0
aa(lp2069
F0
aF0
aF0
aF0
aF0
aF0
aF0
aF0
aF0
aF0
aF0
aF0
aF0
aF0
aF0
aF0
aa(lp2070
F0
aF0
aF0
aF0
aF0
aF0
aF0
aF0
aF0
aF0
aF0
aF0
aF0
aF0
aF0
aF0
aa(lp2071
F0
aF0
aF0
aF0
aF0
aF0
aF0
aF0
aF0
aF0
aF0
aF0
aF0
aF0
aF0
aF0
aa(lp2072
F0
aF0
aF0
aF0
aF0
aF0
aF0
aF0
aF0
aF0
aF0
aF0
aF0
aF0
aF0
aF0
aa(lp2073
F0
aF0
aF0
aF0
aF0
aF0
aF0
aF0
aF0
aF0
aF0
aF0
aF0
aF0
aF0
aF0
aa(lp2074
F0
aF0
aF0
aF0
aF0
aF0
aF0
aF0
aF0
aF0
aF0
aF0
aF0
aF0
aF0
aF0
aa(lp2075
F0
aF0
aF0
aF0
aF0
aF0
aF0
aF0
aF0
aF0
aF0
aF0
aF0
aF0
aF0
aF0
aa(lp2076
F0
aF0
aF0
aF0
aF0
aF0
aF0
aF0
aF0
aF0
aF0
aF0
aF0
aF0
aF0
aF0
aa(lp2077
F0
aF0
aF0
aF0
aF0
aF0
aF0
aF0
aF0
aF0
aF0
aF0
aF0
aF0
aF0
aF0
aa(lp2078
F0
aF0
aF0
aF0
aF0
aF0
aF0
aF0
aF0
aF0
aF0
aF0
aF0
aF0
aF0
aF0
aa(lp2079
F0
aF0
aF0
aF0
aF0
aF0
aF0
aF0
aF0
aF0
aF0
aF0
aF0
aF0
aF0
aF0
aa(lp2080
F0
aF0
aF0
aF0
aF0
aF0
aF0
aF0
aF0
aF0
aF0
aF0
aF0
aF0
aF0
aF0
aasbsS'T2'
p2081
(iclusterfk.Mantis
MantisState
p2082
(dp2083
g8
I0
sg9
g2081
sg10
Nsg11
(lp2084
I0
aI0
aI0
aI0
aI0
aI0
aI0
aI0
aI0
aI0
aI0
aI0
aI0
aI0
aI0
aI0
asg13
(lp2085
(lp2086
(lp2087
I0
aa(lp2088
I0
aa(lp2089
I10
aa(lp2090
I0
aaa(lp2091
(lp2092
I0
aa(lp2093
I0
aa(lp2094
I10
aa(lp2095
I0
aaa(lp2096
(lp2097
I0
aa(lp2098
I0
aa(lp2099
I0
aa(lp2100
I0
aaa(lp2101
(lp2102
I0
aa(lp2103
I0
aa(lp2104
I0
aa(lp2105
I0
aaasg35
(lp2106
(lp2107
F0
aF0
aF0
aF0
aF0
aF0
aF0
aF0
aF0
aF0
aF0
aF0
aF0
aF0
aF0
aF0
aa(lp2108
F0
aF0
aF0
aF0
aF0
aF0
aF0
aF0
aF0
aF0
aF0
aF0
aF0
aF0
aF0
aF0
aa(lp2109
F0
aF0
aF0
aF0
aF0
aF0
aF0
aF0
aF0
aF0
aF0
aF0
aF0
aF0
aF0
aF0
aa(lp2110
F0
aF0
aF0
aF0
aF0
aF0
aF0
aF0
aF0
aF0
aF0
aF0
aF0
aF0
aF0
aF0
aa(lp2111
F0
aF0
aF0
aF0
aF0
aF0
aF0
aF0
aF0
aF0
aF0
aF0
aF0
aF0
aF0
aF0
aa(lp2112
F0
aF0
aF0
aF0
aF0
aF0
aF0
aF0
aF0
aF0
aF0
aF0
aF0
aF0
aF0
aF0
aa(lp2113
F0
aF0
aF0
aF0
aF0
aF0
aF0
aF0
aF0
aF0
aF0
aF0
aF0
aF0
aF0
aF0
aa(lp2114
F0
aF0
aF0
aF0
aF0
aF0
aF0
aF0
aF0
aF0
aF0
aF0
aF0
aF0
aF0
aF0
aa(lp2115
F0
aF0
aF0
aF0
aF0
aF0
aF0
aF0
aF0
aF0
aF0
aF0
aF0
aF0
aF0
aF0
aa(lp2116
F0
aF0
aF0
aF0
aF0
aF0
aF0
aF0
aF0
aF0
aF0
aF0
aF0
aF0
aF0
aF0
aa(lp2117
F0
aF0
aF0
aF0
aF0
aF0
aF0
aF0
aF0
aF0
aF0
aF0
aF0
aF0
aF0
aF0
aa(lp2118
F0
aF0
aF0
aF0
aF0
aF0
aF0
aF0
aF0
aF0
aF0
aF0
aF0
aF0
aF0
aF0
aa(lp2119
F0
aF0
aF0
aF0
aF0
aF0
aF0
aF0
aF0
aF0
aF0
aF0
aF0
aF0
aF0
aF0
aa(lp2120
F0
aF0
aF0
aF0
aF0
aF0
aF0
aF0
aF0
aF0
aF0
aF0
aF0
aF0
aF0
aF0
aa(lp2121
F0
aF0
aF0
aF0
aF0
aF0
aF0
aF0
aF0
aF0
aF0
aF0
aF0
aF0
aF0
aF0
aa(lp2122
F0
aF0
aF0
aF0
aF0
aF0
aF0
aF0
aF0
aF0
aF0
aF0
aF0
aF0
aF0
aF0
aasbsS'T3'
p2123
(iclusterfk.Mantis
MantisState
p2124
(dp2125
g8
I0
sg9
g2123
sg10
Nsg11
(lp2126
I0
aI0
aI0
aI0
aI0
aI0
aI0
aI0
aI0
aI0
aI0
aI0
aI0
aI0
aI0
aI0
asg13
(lp2127
(lp2128
(lp2129
I10
aa(lp2130
I0
aa(lp2131
I0
aa(lp2132
I0
aaa(lp2133
(lp2134
I0
aa(lp2135
I0
aa(lp2136
I10
aa(lp2137
I0
aaa(lp2138
(lp2139
I0
aa(lp2140
I0
aa(lp2141
I0
aa(lp2142
I0
aaa(lp2143
(lp2144
I0
aa(lp2145
I0
aa(lp2146
I0
aa(lp2147
I0
aaasg35
(lp2148
(lp2149
F0
aF0
aF0
aF0
aF0
aF0
aF0
aF0
aF0
aF0
aF0
aF0
aF0
aF0
aF0
aF0
aa(lp2150
F0
aF0
aF0
aF0
aF0
aF0
aF0
aF0
aF0
aF0
aF0
aF0
aF0
aF0
aF0
aF0
aa(lp2151
F0
aF0
aF0
aF0
aF0
aF0
aF0
aF0
aF0
aF0
aF0
aF0
aF0
aF0
aF0
aF0
aa(lp2152
F0
aF0
aF0
aF0
aF0
aF0
aF0
aF0
aF0
aF0
aF0
aF0
aF0
aF0
aF0
aF0
aa(lp2153
F0
aF0
aF0
aF0
aF0
aF0
aF0
aF0
aF0
aF0
aF0
aF0
aF0
aF0
aF0
aF0
aa(lp2154
F0
aF0
aF0
aF0
aF0
aF0
aF0
aF0
aF0
aF0
aF0
aF0
aF0
aF0
aF0
aF0
aa(lp2155
F0
aF0
aF0
aF0
aF0
aF0
aF0
aF0
aF0
aF0
aF0
aF0
aF0
aF0
aF0
aF0
aa(lp2156
F0
aF0
aF0
aF0
aF0
aF0
aF0
aF0
aF0
aF0
aF0
aF0
aF0
aF0
aF0
aF0
aa(lp2157
F0
aF0
aF0
aF0
aF0
aF0
aF0
aF0
aF0
aF0
aF0
aF0
aF0
aF0
aF0
aF0
aa(lp2158
F0
aF0
aF0
aF0
aF0
aF0
aF0
aF0
aF0
aF0
aF0
aF0
aF0
aF0
aF0
aF0
aa(lp2159
F0
aF0
aF0
aF0
aF0
aF0
aF0
aF0
aF0
aF0
aF0
aF0
aF0
aF0
aF0
aF0
aa(lp2160
F0
aF0
aF0
aF0
aF0
aF0
aF0
aF0
aF0
aF0
aF0
aF0
aF0
aF0
aF0
aF0
aa(lp2161
F0
aF0
aF0
aF0
aF0
aF0
aF0
aF0
aF0
aF0
aF0
aF0
aF0
aF0
aF0
aF0
aa(lp2162
F0
aF0
aF0
aF0
aF0
aF0
aF0
aF0
aF0
aF0
aF0
aF0
aF0
aF0
aF0
aF0
aa(lp2163
F0
aF0
aF0
aF0
aF0
aF0
aF0
aF0
aF0
aF0
aF0
aF0
aF0
aF0
aF0
aF0
aa(lp2164
F0
aF0
aF0
aF0
aF0
aF0
aF0
aF0
aF0
aF0
aF0
aF0
aF0
aF0
aF0
aF0
aasbsS'T0'
p2165
(iclusterfk.Mantis
MantisState
p2166
(dp2167
g8
I0
sg9
g2165
sg10
Nsg11
(lp2168
I0
aI0
aI0
aI0
aI0
aI0
aI0
aI0
aI0
aI0
aI0
aI0
aI0
aI0
aI0
aI0
asg13
(lp2169
(lp2170
(lp2171
I0
aa(lp2172
I0
aa(lp2173
I0
aa(lp2174
I0
aaa(lp2175
(lp2176
I0
aa(lp2177
I0
aa(lp2178
I0
aa(lp2179
I0
aaa(lp2180
(lp2181
I0
aa(lp2182
I0
aa(lp2183
I10
aa(lp2184
I0
aaa(lp2185
(lp2186
I0
aa(lp2187
I0
aa(lp2188
I10
aa(lp2189
I0
aaasg35
(lp2190
(lp2191
F0
aF0
aF0
aF0
aF0
aF0
aF0
aF0
aF0
aF0
aF0
aF0
aF0
aF0
aF0
aF0
aa(lp2192
F0
aF0
aF0
aF0
aF0
aF0
aF0
aF0
aF0
aF0
aF0
aF0
aF0
aF0
aF0
aF0
aa(lp2193
F0
aF0
aF0
aF0
aF0
aF0
aF0
aF0
aF0
aF0
aF0
aF0
aF0
aF0
aF0
aF0
aa(lp2194
F0
aF0
aF0
aF0
aF0
aF0
aF0
aF0
aF0
aF0
aF0
aF0
aF0
aF0
aF0
aF0
aa(lp2195
F0
aF0
aF0
aF0
aF0
aF0
aF0
aF0
aF0
aF0
aF0
aF0
aF0
aF0
aF0
aF0
aa(lp2196
F0
aF0
aF0
aF0
aF0
aF0
aF0
aF0
aF0
aF0
aF0
aF0
aF0
aF0
aF0
aF0
aa(lp2197
F0
aF0
aF0
aF0
aF0
aF0
aF0
aF0
aF0
aF0
aF0
aF0
aF0
aF0
aF0
aF0
aa(lp2198
F0
aF0
aF0
aF0
aF0
aF0
aF0
aF0
aF0
aF0
aF0
aF0
aF0
aF0
aF0
aF0
aa(lp2199
F0
aF0
aF0
aF0
aF0
aF0
aF0
aF0
aF0
aF0
aF0
aF0
aF0
aF0
aF0
aF0
aa(lp2200
F0
aF0
aF0
aF0
aF0
aF0
aF0
aF0
aF0
aF0
aF0
aF0
aF0
aF0
aF0
aF0
aa(lp2201
F0
aF0
aF0
aF0
aF0
aF0
aF0
aF0
aF0
aF0
aF0
aF0
aF0
aF0
aF0
aF0
aa(lp2202
F0
aF0
aF0
aF0
aF0
aF0
aF0
aF0
aF0
aF0
aF0
aF0
aF0
aF0
aF0
aF0
aa(lp2203
F0
aF0
aF0
aF0
aF0
aF0
aF0
aF0
aF0
aF0
aF0
aF0
aF0
aF0
aF0
aF0
aa(lp2204
F0
aF0
aF0
aF0
aF0
aF0
aF0
aF0
aF0
aF0
aF0
aF0
aF0
aF0
aF0
aF0
aa(lp2205
F0
aF0
aF0
aF0
aF0
aF0
aF0
aF0
aF0
aF0
aF0
aF0
aF0
aF0
aF0
aF0
aa(lp2206
F0
aF0
aF0
aF0
aF0
aF0
aF0
aF0
aF0
aF0
aF0
aF0
aF0
aF0
aF0
aF0
aasbsS'T1'
p2207
(iclusterfk.Mantis
MantisState
p2208
(dp2209
g8
I0
sg9
g2207
sg10
Nsg11
(lp2210
I0
aI0
aI0
aI0
aI0
aI0
aI0
aI0
aI0
aI0
aI0
aI0
aI0
aI0
aI0
aI0
asg13
(lp2211
(lp2212
(lp2213
I0
aa(lp2214
I0
aa(lp2215
I10
aa(lp2216
I0
aaa(lp2217
(lp2218
I0
aa(lp2219
I0
aa(lp2220
I0
aa(lp2221
I0
aaa(lp2222
(lp2223
I0
aa(lp2224
I0
aa(lp2225
I0
aa(lp2226
I0
aaa(lp2227
(lp2228
I0
aa(lp2229
I0
aa(lp2230
I10
aa(lp2231
I0
aaasg35
(lp2232
(lp2233
F0
aF0
aF0
aF0
aF0
aF0
aF0
aF0
aF0
aF0
aF0
aF0
aF0
aF0
aF0
aF0
aa(lp2234
F0
aF0
aF0
aF0
aF0
aF0
aF0
aF0
aF0
aF0
aF0
aF0
aF0
aF0
aF0
aF0
aa(lp2235
F0
aF0
aF0
aF0
aF0
aF0
aF0
aF0
aF0
aF0
aF0
aF0
aF0
aF0
aF0
aF0
aa(lp2236
F0
aF0
aF0
aF0
aF0
aF0
aF0
aF0
aF0
aF0
aF0
aF0
aF0
aF0
aF0
aF0
aa(lp2237
F0
aF0
aF0
aF0
aF0
aF0
aF0
aF0
aF0
aF0
aF0
aF0
aF0
aF0
aF0
aF0
aa(lp2238
F0
aF0
aF0
aF0
aF0
aF0
aF0
aF0
aF0
aF0
aF0
aF0
aF0
aF0
aF0
aF0
aa(lp2239
F0
aF0
aF0
aF0
aF0
aF0
aF0
aF0
aF0
aF0
aF0
aF0
aF0
aF0
aF0
aF0
aa(lp2240
F0
aF0
aF0
aF0
aF0
aF0
aF0
aF0
aF0
aF0
aF0
aF0
aF0
aF0
aF0
aF0
aa(lp2241
F0
aF0
aF0
aF0
aF0
aF0
aF0
aF0
aF0
aF0
aF0
aF0
aF0
aF0
aF0
aF0
aa(lp2242
F0
aF0
aF0
aF0
aF0
aF0
aF0
aF0
aF0
aF0
aF0
aF0
aF0
aF0
aF0
aF0
aa(lp2243
F0
aF0
aF0
aF0
aF0
aF0
aF0
aF0
aF0
aF0
aF0
aF0
aF0
aF0
aF0
aF0
aa(lp2244
F0
aF0
aF0
aF0
aF0
aF0
aF0
aF0
aF0
aF0
aF0
aF0
aF0
aF0
aF0
aF0
aa(lp2245
F0
aF0
aF0
aF0
aF0
aF0
aF0
aF0
aF0
aF0
aF0
aF0
aF0
aF0
aF0
aF0
aa(lp2246
F0
aF0
aF0
aF0
aF0
aF0
aF0
aF0
aF0
aF0
aF0
aF0
aF0
aF0
aF0
aF0
aa(lp2247
F0
aF0
aF0
aF0
aF0
aF0
aF0
aF0
aF0
aF0
aF0
aF0
aF0
aF0
aF0
aF0
aa(lp2248
F0
aF0
aF0
aF0
aF0
aF0
aF0
aF0
aF0
aF0
aF0
aF0
aF0
aF0
aF0
aF0
aasbsS'P9'
p2249
(iclusterfk.Mantis
MantisState
p2250
(dp2251
g8
I0
sg9
g2249
sg10
(dp2252
g1767
(dp2253
g891
F1
ssg1773
(dp2254
g897
F1
ssg1776
(dp2255
g894
F1
ssg1770
(dp2256
g888
F1
sssg11
(lp2257
I0
aI0
aI0
aI0
aI0
aI0
aI0
aI0
aI0
aI0
aI0
aI0
aI0
aI0
aI0
aI0
asg13
(lp2258
(lp2259
(lp2260
I10
aag907
ag919
ag913
aa(lp2261
g917
a(lp2262
I0
aag903
ag909
aa(lp2263
g914
ag918
a(lp2264
I10
aag902
aa(lp2265
g908
ag904
ag912
a(lp2266
I0
aaasg35
(lp2267
(lp2268
F0
aF0
aF0
aF0
aF0
aF0
aF0
aF0
aF0
aF0
aF1
aF0
aF0
aF0
aF0
aF0
aa(lp2269
F1
aF0
aF0
aF0
aF0
aF0
aF0
aF0
aF0
aF0
aF0
aF0
aF0
aF0
aF0
aF0
aa(lp2270
F1
aF0
aF0
aF0
aF0
aF0
aF0
aF0
aF0
aF0
aF0
aF0
aF0
aF0
aF0
aF0
aa(lp2271
F1
aF0
aF0
aF0
aF0
aF0
aF0
aF0
aF0
aF0
aF0
aF0
aF0
aF0
aF0
aF0
aa(lp2272
F1
aF0
aF0
aF0
aF0
aF0
aF0
aF0
aF0
aF0
aF0
aF0
aF0
aF0
aF0
aF0
aa(lp2273
F1
aF0
aF0
aF0
aF0
aF0
aF0
aF0
aF0
aF0
aF0
aF0
aF0
aF0
aF0
aF0
aa(lp2274
F1
aF0
aF0
aF0
aF0
aF0
aF0
aF0
aF0
aF0
aF0
aF0
aF0
aF0
aF0
aF0
aa(lp2275
F1
aF0
aF0
aF0
aF0
aF0
aF0
aF0
aF0
aF0
aF0
aF0
aF0
aF0
aF0
aF0
aa(lp2276
F1
aF0
aF0
aF0
aF0
aF0
aF0
aF0
aF0
aF0
aF0
aF0
aF0
aF0
aF0
aF0
aa(lp2277
F1
aF0
aF0
aF0
aF0
aF0
aF0
aF0
aF0
aF0
aF0
aF0
aF0
aF0
aF0
aF0
aa(lp2278
F0
aF0
aF0
aF0
aF0
aF0
aF0
aF0
aF0
aF0
aF1
aF0
aF0
aF0
aF0
aF0
aa(lp2279
F1
aF0
aF0
aF0
aF0
aF0
aF0
aF0
aF0
aF0
aF0
aF0
aF0
aF0
aF0
aF0
aa(lp2280
F1
aF0
aF0
aF0
aF0
aF0
aF0
aF0
aF0
aF0
aF0
aF0
aF0
aF0
aF0
aF0
aa(lp2281
F1
aF0
aF0
aF0
aF0
aF0
aF0
aF0
aF0
aF0
aF0
aF0
aF0
aF0
aF0
aF0
aa(lp2282
F1
aF0
aF0
aF0
aF0
aF0
aF0
aF0
aF0
aF0
aF0
aF0
aF0
aF0
aF0
aF0
aa(lp2283
F1
aF0
aF0
aF0
aF0
aF0
aF0
aF0
aF0
aF0
aF0
aF0
aF0
aF0
aF0
aF0
aasbsS'a6'
p2284
(iclusterfk.Mantis
MantisState
p2285
(dp2286
g8
I0
sg9
g2284
sg10
Nsg11
(lp2287
I0
aI7
aI0
aI0
aI0
aI0
aI0
aI0
aI0
aI0
aI0
aI0
aI0
aI7
aI0
aI0
asg13
(lp2288
(lp2289
(lp2290
I0
aa(lp2291
I10
aI13
aI5
aI15
aa(lp2292
I0
aa(lp2293
I0
aaa(lp2294
(lp2295
I0
aa(lp2296
I0
aa(lp2297
I0
aa(lp2298
I0
aaa(lp2299
(lp2300
I0
aa(lp2301
I0
aa(lp2302
I0
aa(lp2303
I0
aaa(lp2304
(lp2305
I0
aa(lp2306
I10
aI13
aI5
aI15
aa(lp2307
I0
aa(lp2308
I0
aaasg35
(lp2309
(lp2310
F1
aF0
aF0
aF0
aF0
aF0
aF0
aF0
aF0
aF0
aF0
aF0
aF0
aF0
aF0
aF0
aa(lp2311
F0
aF0
aF0
aF0
aF0
aF0.25
aF0
aF0
aF0
aF0
aF0.25
aF0
aF0
aF0.25
aF0
aF0.25
aa(lp2312
F1
aF0
aF0
aF0
aF0
aF0
aF0
aF0
aF0
aF0
aF0
aF0
aF0
aF0
aF0
aF0
aa(lp2313
F1
aF0
aF0
aF0
aF0
aF0
aF0
aF0
aF0
aF0
aF0
aF0
aF0
aF0
aF0
aF0
aa(lp2314
F1
aF0
aF0
aF0
aF0
aF0
aF0
aF0
aF0
aF0
aF0
aF0
aF0
aF0
aF0
aF0
aa(lp2315
F1
aF0
aF0
aF0
aF0
aF0
aF0
aF0
aF0
aF0
aF0
aF0
aF0
aF0
aF0
aF0
aa(lp2316
F1
aF0
aF0
aF0
aF0
aF0
aF0
aF0
aF0
aF0
aF0
aF0
aF0
aF0
aF0
aF0
aa(lp2317
F1
aF0
aF0
aF0
aF0
aF0
aF0
aF0
aF0
aF0
aF0
aF0
aF0
aF0
aF0
aF0
aa(lp2318
F1
aF0
aF0
aF0
aF0
aF0
aF0
aF0
aF0
aF0
aF0
aF0
aF0
aF0
aF0
aF0
aa(lp2319
F1
aF0
aF0
aF0
aF0
aF0
aF0
aF0
aF0
aF0
aF0
aF0
aF0
aF0
aF0
aF0
aa(lp2320
F1
aF0
aF0
aF0
aF0
aF0
aF0
aF0
aF0
aF0
aF0
aF0
aF0
aF0
aF0
aF0
aa(lp2321
F1
aF0
aF0
aF0
aF0
aF0
aF0
aF0
aF0
aF0
aF0
aF0
aF0
aF0
aF0
aF0
aa(lp2322
F1
aF0
aF0
aF0
aF0
aF0
aF0
aF0
aF0
aF0
aF0
aF0
aF0
aF0
aF0
aF0
aa(lp2323
F0
aF0
aF0
aF0
aF0
aF0.25
aF0
aF0
aF0
aF0
aF0.25
aF0
aF0
aF0.25
aF0
aF0.25
aa(lp2324
F1
aF0
aF0
aF0
aF0
aF0
aF0
aF0
aF0
aF0
aF0
aF0
aF0
aF0
aF0
aF0
aa(lp2325
F1
aF0
aF0
aF0
aF0
aF0
aF0
aF0
aF0
aF0
aF0
aF0
aF0
aF0
aF0
aF0
aasbsS'A12'
p2326
(iclusterfk.Mantis
MantisState
p2327
(dp2328
g8
I0
sg9
g2326
sg10
Nsg11
(lp2329
I0
aI0
aI0
aI0
aI0
aI0
aI0
aI0
aI0
aI0
aI0
aI0
aI0
aI0
aI0
aI0
asg13
(lp2330
(lp2331
(lp2332
I1
aI2
aI3
aI4
aI5
aI6
aI7
aI8
aI9
aI10
aI11
aI12
aI13
aI14
aI15
aa(lp2333
I0
aa(lp2334
I0
aI1
aI2
aI3
aI4
aI5
aI6
aI7
aI8
aI9
aI10
aI11
aI12
aI13
aI14
aI15
aa(lp2335
I0
aI1
aI3
aI4
aI5
aI6
aI7
aI9
aI10
aI11
aI12
aI13
aI14
aI15
aaa(lp2336
(lp2337
I0
aa(lp2338
I1
aI2
aI3
aI4
aI5
aI6
aI7
aI8
aI9
aI10
aI11
aI12
aI13
aI14
aI15
aa(lp2339
I1
aI3
aI4
aI5
aI6
aI7
aI9
aI10
aI11
aI12
aI13
aI14
aI15
aa(lp2340
I1
aI2
aI3
aI4
aI5
aI6
aI7
aI8
aI9
aI10
aI11
aI12
aI13
aI14
aI15
aaa(lp2341
(lp2342
I1
aI2
aI3
aI4
aI5
aI6
aI7
aI8
aI9
aI10
aI11
aI12
aI13
aI14
aI15
aa(lp2343
I0
aI1
aI3
aI4
aI5
aI6
aI7
aI9
aI10
aI11
aI12
aI13
aI14
aI15
aa(lp2344
I0
aI1
aI2
aI3
aI4
aI5
aI6
aI7
aI8
aI9
aI11
aI12
aI13
aI14
aI15
aa(lp2345
I0
aaa(lp2346
(lp2347
I1
aI3
aI4
aI5
aI6
aI7
aI9
aI10
aI11
aI12
aI13
aI14
aI15
aa(lp2348
I0
aa(lp2349
I0
aI7
aI5
aI15
aa(lp2350
I0
aaasg35
(lp2351
(lp2352
F0
aF0
aF0
aF0
aF0
aF0
aF0
aF0
aF0
aF0
aF0
aF0
aF0
aF0
aF0
aF0
aa(lp2353
F0
aF0
aF0
aF0
aF0
aF0
aF0
aF0
aF0
aF0
aF0
aF0
aF0
aF0
aF0
aF0
aa(lp2354
F0
aF0
aF0
aF0
aF0
aF0
aF0
aF0
aF0
aF0
aF0
aF0
aF0
aF0
aF0
aF0
aa(lp2355
F0
aF0
aF0
aF0
aF0
aF0
aF0
aF0
aF0
aF0
aF0
aF0
aF0
aF0
aF0
aF0
aa(lp2356
F0
aF0
aF0
aF0
aF0
aF0
aF0
aF0
aF0
aF0
aF0
aF0
aF0
aF0
aF0
aF0
aa(lp2357
F0
aF0
aF0
aF0
aF0
aF0
aF0
aF0
aF0
aF0
aF0
aF0
aF0
aF0
aF0
aF0
aa(lp2358
F0
aF0
aF0
aF0
aF0
aF0
aF0
aF0
aF0
aF0
aF0
aF0
aF0
aF0
aF0
aF0
aa(lp2359
F0
aF0
aF0
aF0
aF0
aF0
aF0
aF0
aF0
aF0
aF0
aF0
aF0
aF0
aF0
aF0
aa(lp2360
F0
aF0
aF0
aF0
aF0
aF0
aF0
aF0
aF0
aF0
aF0
aF0
aF0
aF0
aF0
aF0
aa(lp2361
F0
aF0
aF0
aF0
aF0
aF0
aF0
aF0
aF0
aF0
aF0
aF0
aF0
aF0
aF0
aF0
aa(lp2362
F0
aF0
aF0
aF0
aF0
aF0
aF0
aF0
aF0
aF0
aF0
aF0
aF0
aF0
aF0
aF0
aa(lp2363
F0
aF0
aF0
aF0
aF0
aF0
aF0
aF0
aF0
aF0
aF0
aF0
aF0
aF0
aF0
aF0
aa(lp2364
F0
aF0
aF0
aF0
aF0
aF0
aF0
aF0
aF0
aF0
aF0
aF0
aF0
aF0
aF0
aF0
aa(lp2365
F0
aF0
aF0
aF0
aF0
aF0
aF0
aF0
aF0
aF0
aF0
aF0
aF0
aF0
aF0
aF0
aa(lp2366
F0
aF0
aF0
aF0
aF0
aF0
aF0
aF0
aF0
aF0
aF0
aF0
aF0
aF0
aF0
aF0
aa(lp2367
F0
aF0
aF0
aF0
aF0
aF0
aF0
aF0
aF0
aF0
aF0
aF0
aF0
aF0
aF0
aF0
aasbsS'M11'
p2368
(iclusterfk.Mantis
MantisState
p2369
(dp2370
g8
I0
sg9
g2368
sg10
(dp2371
(I0
I4
I8
I12
tp2372
(dp2373
g1236
F0.0625
sg1237
F0.125
sg1238
F0.03125
sg1239
F0.0625
sg1240
F0.0625
sg1241
F0.125
sg1242
F0.25
sg1243
F0.03125
sg1244
F0.0625
sg1245
F0.03125
sg1246
F0.0625
sg1247
F0.03125
sg1248
F0.0625
ss(I3
I7
I11
I15
tp2374
(dp2375
g1203
F0.0625
sg1204
F0.0625
sg1205
F0.0625
sg1206
F0.25
sg1207
F0.03125
sg1208
F0.0625
sg1209
F0.03125
sg1210
F0.03125
sg1211
F0.125
sg1212
F0.03125
sg1213
F0.0625
sg1214
F0.125
sg1215
F0.0625
ss(I1
I5
I9
I13
tp2376
(dp2377
g1234
F1
ss(I2
I6
I10
I14
tp2378
(dp2379
g1217
F0.0625
sg1223
F0.0625
sg1222
F0.0625
sg1219
F0.0625
sg1218
F0.0625
sg1220
F0.0625
sg1221
F0.0625
sg1227
F0.0625
sg1225
F0.0625
sg1226
F0.0625
sg1230
F0.0625
sg1224
F0.0625
sg1228
F0.0625
sg1229
F0.0625
sg1231
F0.0625
sg1232
F0.0625
sssg11
(lp2380
I5
aI0
aI0
aI0
aI5
aI0
aI0
aI6
aI5
aI0
aI0
aI6
aI0
aI0
aI0
aI6
asg13
(lp2381
(lp2382
(lp2383
I1
aI3
aI4
aI5
aI6
aI7
aI9
aI10
aI11
aI12
aI13
aI14
aI15
aag1265
a(lp2384
I10
aI13
aI5
aI15
aa(lp2385
I0
aaa(lp2386
(lp2387
I1
aI3
aI4
aI5
aI6
aI7
aI9
aI10
aI11
aI12
aI13
aI14
aI15
aag1253
a(lp2388
I10
aI15
aI5
aI13
aa(lp2389
I1
aI3
aI4
aI5
aI6
aI7
aI9
aI10
aI11
aI12
aI13
aI14
aI15
aaa(lp2390
(lp2391
I1
aI3
aI4
aI5
aI6
aI7
aI9
aI10
aI11
aI12
aI13
aI14
aI15
aag1269
a(lp2392
I0
aI2
aI5
aI7
aI8
aI10
aI15
aa(lp2393
I1
aI3
aI4
aI5
aI6
aI7
aI9
aI10
aI11
aI12
aI13
aI14
aI15
aaa(lp2394
(lp2395
I0
aag1257
a(lp2396
I0
aI2
aI5
aI7
aI8
aI10
aI15
aa(lp2397
I1
aI3
aI4
aI5
aI6
aI7
aI9
aI10
aI11
aI12
aI13
aI14
aI15
aaasg35
(lp2398
(lp2399
F0
aF0.03125
aF0
aF0.0625
aF0.03125
aF0.0625
aF0.0625
aF0.125
aF0
aF0.03125
aF0.25
aF0.0625
aF0.03125
aF0.0625
aF0.0625
aF0.125
aa(lp2400
F1
aF0
aF0
aF0
aF0
aF0
aF0
aF0
aF0
aF0
aF0
aF0
aF0
aF0
aF0
aF0
aa(lp2401
F0
aF0
aF0
aF0
aF0
aF0.25
aF0
aF0
aF0
aF0
aF0.25
aF0
aF0
aF0.25
aF0
aF0.25
aa(lp2402
F1
aF0
aF0
aF0
aF0
aF0
aF0
aF0
aF0
aF0
aF0
aF0
aF0
aF0
aF0
aF0
aa(lp2403
F0
aF0.03125
aF0
aF0.0625
aF0.03125
aF0.0625
aF0.0625
aF0.125
aF0
aF0.03125
aF0.25
aF0.0625
aF0.03125
aF0.0625
aF0.0625
aF0.125
aa(lp2404
F1
aF0
aF0
aF0
aF0
aF0
aF0
aF0
aF0
aF0
aF0
aF0
aF0
aF0
aF0
aF0
aa(lp2405
F0
aF0
aF0
aF0
aF0
aF0.25
aF0
aF0
aF0
aF0
aF0.25
aF0
aF0
aF0.25
aF0
aF0.25
aa(lp2406
F0
aF0.03125
aF0
aF0.0625
aF0.03125
aF0.0625
aF0.0625
aF0.125
aF0
aF0.03125
aF0.25
aF0.0625
aF0.03125
aF0.0625
aF0.0625
aF0.125
aa(lp2407
F0
aF0.03125
aF0
aF0.0625
aF0.03125
aF0.0625
aF0.0625
aF0.125
aF0
aF0.03125
aF0.25
aF0.0625
aF0.03125
aF0.0625
aF0.0625
aF0.125
aa(lp2408
F1
aF0
aF0
aF0
aF0
aF0
aF0
aF0
aF0
aF0
aF0
aF0
aF0
aF0
aF0
aF0
aa(lp2409
F0.25
aF0
aF0.125
aF0
aF0
aF0.125
aF0
aF0.125
aF0.125
aF0
aF0.125
aF0
aF0
aF0
aF0
aF0.125
aa(lp2410
F0
aF0.03125
aF0
aF0.0625
aF0.03125
aF0.0625
aF0.0625
aF0.125
aF0
aF0.03125
aF0.25
aF0.0625
aF0.03125
aF0.0625
aF0.0625
aF0.125
aa(lp2411
F1
aF0
aF0
aF0
aF0
aF0
aF0
aF0
aF0
aF0
aF0
aF0
aF0
aF0
aF0
aF0
aa(lp2412
F1
aF0
aF0
aF0
aF0
aF0
aF0
aF0
aF0
aF0
aF0
aF0
aF0
aF0
aF0
aF0
aa(lp2413
F0.25
aF0
aF0.125
aF0
aF0
aF0.125
aF0
aF0.125
aF0.125
aF0
aF0.125
aF0
aF0
aF0
aF0
aF0.125
aa(lp2414
F0
aF0.03125
aF0
aF0.0625
aF0.03125
aF0.0625
aF0.0625
aF0.125
aF0
aF0.03125
aF0.25
aF0.0625
aF0.03125
aF0.0625
aF0.0625
aF0.125
aasbsS'M10'
p2415
(iclusterfk.Mantis
MantisState
p2416
(dp2417
g8
I0
sg9
g2415
sg10
(dp2418
(I0
I4
I8
I12
tp2419
(dp2420
g1010
F1
ss(I3
I7
I11
I15
tp2421
(dp2422
g998
F1
ss(I1
I5
I9
I13
tp2423
(dp2424
g1007
F1
ss(I2
I6
I10
I14
tp2425
(dp2426
g1003
F0.25
sg1001
F0.25
sg1002
F0.25
sg1004
F0.25
sssg11
(lp2427
I0
aI0
aI0
aI0
aI0
aI0
aI4
aI0
aI0
aI0
aI4
aI0
aI0
aI0
aI0
aI0
asg13
(lp2428
(lp2429
g1014
ag1027
a(lp2430
I0
aag1030
aa(lp2431
g1026
ag1015
a(lp2432
I10
aI15
aI5
aI13
aag1022
aa(lp2433
g1020
ag1031
a(lp2434
I10
aI15
aI5
aI13
aag1024
aa(lp2435
g1032
ag1019
a(lp2436
I0
aag1016
aasg35
(lp2437
(lp2438
F1
aF0
aF0
aF0
aF0
aF0
aF0
aF0
aF0
aF0
aF0
aF0
aF0
aF0
aF0
aF0
aa(lp2439
F1
aF0
aF0
aF0
aF0
aF0
aF0
aF0
aF0
aF0
aF0
aF0
aF0
aF0
aF0
aF0
aa(lp2440
F1
aF0
aF0
aF0
aF0
aF0
aF0
aF0
aF0
aF0
aF0
aF0
aF0
aF0
aF0
aF0
aa(lp2441
F1
aF0
aF0
aF0
aF0
aF0
aF0
aF0
aF0
aF0
aF0
aF0
aF0
aF0
aF0
aF0
aa(lp2442
F1
aF0
aF0
aF0
aF0
aF0
aF0
aF0
aF0
aF0
aF0
aF0
aF0
aF0
aF0
aF0
aa(lp2443
F1
aF0
aF0
aF0
aF0
aF0
aF0
aF0
aF0
aF0
aF0
aF0
aF0
aF0
aF0
aF0
aa(lp2444
F0
aF0
aF0
aF0
aF0
aF0.25
aF0
aF0
aF0
aF0
aF0.25
aF0
aF0
aF0.25
aF0
aF0.25
aa(lp2445
F1
aF0
aF0
aF0
aF0
aF0
aF0
aF0
aF0
aF0
aF0
aF0
aF0
aF0
aF0
aF0
aa(lp2446
F1
aF0
aF0
aF0
aF0
aF0
aF0
aF0
aF0
aF0
aF0
aF0
aF0
aF0
aF0
aF0
aa(lp2447
F1
aF0
aF0
aF0
aF0
aF0
aF0
aF0
aF0
aF0
aF0
aF0
aF0
aF0
aF0
aF0
aa(lp2448
F0
aF0
aF0
aF0
aF0
aF0.25
aF0
aF0
aF0
aF0
aF0.25
aF0
aF0
aF0.25
aF0
aF0.25
aa(lp2449
F1
aF0
aF0
aF0
aF0
aF0
aF0
aF0
aF0
aF0
aF0
aF0
aF0
aF0
aF0
aF0
aa(lp2450
F1
aF0
aF0
aF0
aF0
aF0
aF0
aF0
aF0
aF0
aF0
aF0
aF0
aF0
aF0
aF0
aa(lp2451
F1
aF0
aF0
aF0
aF0
aF0
aF0
aF0
aF0
aF0
aF0
aF0
aF0
aF0
aF0
aF0
aa(lp2452
F1
aF0
aF0
aF0
aF0
aF0
aF0
aF0
aF0
aF0
aF0
aF0
aF0
aF0
aF0
aF0
aa(lp2453
F1
aF0
aF0
aF0
aF0
aF0
aF0
aF0
aF0
aF0
aF0
aF0
aF0
aF0
aF0
aF0
aasbssS'propagations'
p2454
(lp2455
(iclusterfk.Propagation
XORStep
p2456
(dp2457
S'tweak'
p2458
g2166
sS'outstate'
p2459
g279
sS'instate'
p2460
g1457
sba(iclusterfk.Propagation
SBOXStep
p2461
(dp2462
g2459
g1415
sS'ddt'
p2463
(lp2464
(lp2465
I16
aI0
aI0
aI0
aI0
aI0
aI0
aI0
aI0
aI0
aI0
aI0
aI0
aI0
aI0
aI0
aa(lp2466
I0
aI2
aI4
aI0
aI2
aI2
aI2
aI0
aI2
aI0
aI0
aI0
aI0
aI0
aI2
aI0
aa(lp2467
I0
aI4
aI0
aI0
aI4
aI0
aI0
aI0
aI0
aI4
aI0
aI0
aI4
aI0
aI0
aI0
aa(lp2468
I0
aI0
aI0
aI0
aI2
aI0
aI4
aI2
aI2
aI2
aI0
aI0
aI0
aI2
aI0
aI2
aa(lp2469
I0
aI2
aI4
aI2
aI2
aI2
aI0
aI0
aI2
aI0
aI0
aI2
aI0
aI0
aI0
aI0
aa(lp2470
I0
aI2
aI0
aI0
aI2
aI0
aI0
aI4
aI0
aI2
aI4
aI0
aI2
aI0
aI0
aI0
aa(lp2471
I0
aI2
aI0
aI4
aI0
aI0
aI0
aI2
aI2
aI0
aI0
aI0
aI2
aI2
aI0
aI2
aa(lp2472
I0
aI0
aI0
aI2
aI0
aI4
aI2
aI0
aI0
aI0
aI0
aI2
aI0
aI4
aI2
aI0
aa(lp2473
I0
aI2
aI0
aI2
aI2
aI0
aI2
aI0
aI0
aI2
aI0
aI2
aI2
aI0
aI2
aI0
aa(lp2474
I0
aI0
aI4
aI2
aI0
aI2
aI0
aI0
aI2
aI2
aI0
aI2
aI2
aI0
aI0
aI0
aa(lp2475
I0
aI0
aI0
aI0
aI0
aI4
aI0
aI0
aI0
aI0
aI4
aI0
aI0
aI4
aI0
aI4
aa(lp2476
I0
aI0
aI0
aI0
aI2
aI0
aI0
aI2
aI2
aI2
aI0
aI4
aI0
aI2
aI0
aI2
aa(lp2477
I0
aI0
aI4
aI0
aI0
aI2
aI2
aI0
aI2
aI2
aI0
aI0
aI2
aI0
aI2
aI0
aa(lp2478
I0
aI0
aI0
aI2
aI0
aI0
aI2
aI4
aI0
aI0
aI4
aI2
aI0
aI0
aI2
aI0
aa(lp2479
I0
aI2
aI0
aI0
aI0
aI0
aI0
aI2
aI2
aI0
aI0
aI0
aI2
aI2
aI4
aI2
aa(lp2480
I0
aI0
aI0
aI2
aI0
aI0
aI2
aI0
aI0
aI0
aI4
aI2
aI0
aI0
aI2
aI4
aasS'sbox'
p2481
(lp2482
I12
aI10
aI13
aI3
aI14
aI11
aI15
aI7
aI8
aI9
aI1
aI5
aI0
aI2
aI4
aI6
asg2460
g279
sba(iclusterfk.Propagation
XORStep
p2483
(dp2484
g2458
g2208
sg2459
g1933
sg2460
g1415
sba(iclusterfk.Propagation
PermutationStep
p2485
(dp2486
g2459
g757
sS'perm'
p2487
(I0
I11
I6
I13
I10
I1
I12
I7
I5
I14
I3
I8
I15
I4
I9
I2
tp2488
sg2460
g1933
sba(iclusterfk.Propagation
MixColStep
p2489
(dp2490
g2459
g209
sg2460
g757
sba(iclusterfk.Propagation
SBOXStep
p2491
(dp2492
g2459
g1541
sg2463
(lp2493
(lp2494
I16
aI0
aI0
aI0
aI0
aI0
aI0
aI0
aI0
aI0
aI0
aI0
aI0
aI0
aI0
aI0
aa(lp2495
I0
aI2
aI4
aI0
aI2
aI2
aI2
aI0
aI2
aI0
aI0
aI0
aI0
aI0
aI2
aI0
aa(lp2496
I0
aI4
aI0
aI0
aI4
aI0
aI0
aI0
aI0
aI4
aI0
aI0
aI4
aI0
aI0
aI0
aa(lp2497
I0
aI0
aI0
aI0
aI2
aI0
aI4
aI2
aI2
aI2
aI0
aI0
aI0
aI2
aI0
aI2
aa(lp2498
I0
aI2
aI4
aI2
aI2
aI2
aI0
aI0
aI2
aI0
aI0
aI2
aI0
aI0
aI0
aI0
aa(lp2499
I0
aI2
aI0
aI0
aI2
aI0
aI0
aI4
aI0
aI2
aI4
aI0
aI2
aI0
aI0
aI0
aa(lp2500
I0
aI2
aI0
aI4
aI0
aI0
aI0
aI2
aI2
aI0
aI0
aI0
aI2
aI2
aI0
aI2
aa(lp2501
I0
aI0
aI0
aI2
aI0
aI4
aI2
aI0
aI0
aI0
aI0
aI2
aI0
aI4
aI2
aI0
aa(lp2502
I0
aI2
aI0
aI2
aI2
aI0
aI2
aI0
aI0
aI2
aI0
aI2
aI2
aI0
aI2
aI0
aa(lp2503
I0
aI0
aI4
aI2
aI0
aI2
aI0
aI0
aI2
aI2
aI0
aI2
aI2
aI0
aI0
aI0
aa(lp2504
I0
aI0
aI0
aI0
aI0
aI4
aI0
aI0
aI0
aI0
aI4
aI0
aI0
aI4
aI0
aI4
aa(lp2505
I0
aI0
aI0
aI0
aI2
aI0
aI0
aI2
aI2
aI2
aI0
aI4
aI0
aI2
aI0
aI2
aa(lp2506
I0
aI0
aI4
aI0
aI0
aI2
aI2
aI0
aI2
aI2
aI0
aI0
aI2
aI0
aI2
aI0
aa(lp2507
I0
aI0
aI0
aI2
aI0
aI0
aI2
aI4
aI0
aI0
aI4
aI2
aI0
aI0
aI2
aI0
aa(lp2508
I0
aI2
aI0
aI0
aI0
aI0
aI0
aI2
aI2
aI0
aI0
aI0
aI2
aI2
aI4
aI2
aa(lp2509
I0
aI0
aI0
aI2
aI0
aI0
aI2
aI0
aI0
aI0
aI4
aI2
aI0
aI0
aI2
aI4
aasg2481
g2482
sg2460
g209
sba(iclusterfk.Propagation
XORStep
p2510
(dp2511
g2458
g2082
sg2459
g1905
sg2460
g1541
sba(iclusterfk.Propagation
PermutationStep
p2512
(dp2513
g2459
g841
sg2487
g2488
sg2460
g1905
sba(iclusterfk.Propagation
MixColStep
p2514
(dp2515
g2459
g151
sg2460
g841
sba(iclusterfk.Propagation
SBOXStep
p2516
(dp2517
g2459
g1499
sg2463
(lp2518
(lp2519
I16
aI0
aI0
aI0
aI0
aI0
aI0
aI0
aI0
aI0
aI0
aI0
aI0
aI0
aI0
aI0
aa(lp2520
I0
aI2
aI4
aI0
aI2
aI2
aI2
aI0
aI2
aI0
aI0
aI0
aI0
aI0
aI2
aI0
aa(lp2521
I0
aI4
aI0
aI0
aI4
aI0
aI0
aI0
aI0
aI4
aI0
aI0
aI4
aI0
aI0
aI0
aa(lp2522
I0
aI0
aI0
aI0
aI2
aI0
aI4
aI2
aI2
aI2
aI0
aI0
aI0
aI2
aI0
aI2
aa(lp2523
I0
aI2
aI4
aI2
aI2
aI2
aI0
aI0
aI2
aI0
aI0
aI2
aI0
aI0
aI0
aI0
aa(lp2524
I0
aI2
aI0
aI0
aI2
aI0
aI0
aI4
aI0
aI2
aI4
aI0
aI2
aI0
aI0
aI0
aa(lp2525
I0
aI2
aI0
aI4
aI0
aI0
aI0
aI2
aI2
aI0
aI0
aI0
aI2
aI2
aI0
aI2
aa(lp2526
I0
aI0
aI0
aI2
aI0
aI4
aI2
aI0
aI0
aI0
aI0
aI2
aI0
aI4
aI2
aI0
aa(lp2527
I0
aI2
aI0
aI2
aI2
aI0
aI2
aI0
aI0
aI2
aI0
aI2
aI2
aI0
aI2
aI0
aa(lp2528
I0
aI0
aI4
aI2
aI0
aI2
aI0
aI0
aI2
aI2
aI0
aI2
aI2
aI0
aI0
aI0
aa(lp2529
I0
aI0
aI0
aI0
aI0
aI4
aI0
aI0
aI0
aI0
aI4
aI0
aI0
aI4
aI0
aI4
aa(lp2530
I0
aI0
aI0
aI0
aI2
aI0
aI0
aI2
aI2
aI2
aI0
aI4
aI0
aI2
aI0
aI2
aa(lp2531
I0
aI0
aI4
aI0
aI0
aI2
aI2
aI0
aI2
aI2
aI0
aI0
aI2
aI0
aI2
aI0
aa(lp2532
I0
aI0
aI0
aI2
aI0
aI0
aI2
aI4
aI0
aI0
aI4
aI2
aI0
aI0
aI2
aI0
aa(lp2533
I0
aI2
aI0
aI0
aI0
aI0
aI0
aI2
aI2
aI0
aI0
aI0
aI2
aI2
aI4
aI2
aa(lp2534
I0
aI0
aI0
aI2
aI0
aI0
aI2
aI0
aI0
aI0
aI4
aI2
aI0
aI0
aI2
aI4
aasg2481
g2482
sg2460
g151
sba(iclusterfk.Propagation
XORStep
p2535
(dp2536
g2458
g2124
sg2459
g1919
sg2460
g1499
sba(iclusterfk.Propagation
PermutationStep
p2537
(dp2538
g2459
g799
sg2487
g2488
sg2460
g1919
sba(iclusterfk.Propagation
MixColStep
p2539
(dp2540
g2459
g96
sg2460
g799
sba(iclusterfk.Propagation
SBOXStep
p2541
(dp2542
g2459
g1625
sg2463
(lp2543
(lp2544
I16
aI0
aI0
aI0
aI0
aI0
aI0
aI0
aI0
aI0
aI0
aI0
aI0
aI0
aI0
aI0
aa(lp2545
I0
aI2
aI4
aI0
aI2
aI2
aI2
aI0
aI2
aI0
aI0
aI0
aI0
aI0
aI2
aI0
aa(lp2546
I0
aI4
aI0
aI0
aI4
aI0
aI0
aI0
aI0
aI4
aI0
aI0
aI4
aI0
aI0
aI0
aa(lp2547
I0
aI0
aI0
aI0
aI2
aI0
aI4
aI2
aI2
aI2
aI0
aI0
aI0
aI2
aI0
aI2
aa(lp2548
I0
aI2
aI4
aI2
aI2
aI2
aI0
aI0
aI2
aI0
aI0
aI2
aI0
aI0
aI0
aI0
aa(lp2549
I0
aI2
aI0
aI0
aI2
aI0
aI0
aI4
aI0
aI2
aI4
aI0
aI2
aI0
aI0
aI0
aa(lp2550
I0
aI2
aI0
aI4
aI0
aI0
aI0
aI2
aI2
aI0
aI0
aI0
aI2
aI2
aI0
aI2
aa(lp2551
I0
aI0
aI0
aI2
aI0
aI4
aI2
aI0
aI0
aI0
aI0
aI2
aI0
aI4
aI2
aI0
aa(lp2552
I0
aI2
aI0
aI2
aI2
aI0
aI2
aI0
aI0
aI2
aI0
aI2
aI2
aI0
aI2
aI0
aa(lp2553
I0
aI0
aI4
aI2
aI0
aI2
aI0
aI0
aI2
aI2
aI0
aI2
aI2
aI0
aI0
aI0
aa(lp2554
I0
aI0
aI0
aI0
aI0
aI4
aI0
aI0
aI0
aI0
aI4
aI0
aI0
aI4
aI0
aI4
aa(lp2555
I0
aI0
aI0
aI0
aI2
aI0
aI0
aI2
aI2
aI2
aI0
aI4
aI0
aI2
aI0
aI2
aa(lp2556
I0
aI0
aI4
aI0
aI0
aI2
aI2
aI0
aI2
aI2
aI0
aI0
aI2
aI0
aI2
aI0
aa(lp2557
I0
aI0
aI0
aI2
aI0
aI0
aI2
aI4
aI0
aI0
aI4
aI2
aI0
aI0
aI2
aI0
aa(lp2558
I0
aI2
aI0
aI0
aI0
aI0
aI0
aI2
aI2
aI0
aI0
aI0
aI2
aI2
aI4
aI2
aa(lp2559
I0
aI0
aI0
aI2
aI0
aI0
aI2
aI0
aI0
aI0
aI4
aI2
aI0
aI0
aI2
aI4
aasg2481
g2482
sg2460
g96
sba(iclusterfk.Propagation
XORStep
p2560
(dp2561
g2458
g2014
sg2459
g1990
sg2460
g1625
sba(iclusterfk.Propagation
PermutationStep
p2562
(dp2563
g2459
g660
sg2487
g2488
sg2460
g1990
sba(iclusterfk.Propagation
MixColStep
p2564
(dp2565
g2459
g563
sg2460
g660
sba(iclusterfk.Propagation
SBOXStep
p2566
(dp2567
g2459
g1583
sg2463
(lp2568
(lp2569
I16
aI0
aI0
aI0
aI0
aI0
aI0
aI0
aI0
aI0
aI0
aI0
aI0
aI0
aI0
aI0
aa(lp2570
I0
aI2
aI4
aI0
aI2
aI2
aI2
aI0
aI2
aI0
aI0
aI0
aI0
aI0
aI2
aI0
aa(lp2571
I0
aI4
aI0
aI0
aI4
aI0
aI0
aI0
aI0
aI4
aI0
aI0
aI4
aI0
aI0
aI0
aa(lp2572
I0
aI0
aI0
aI0
aI2
aI0
aI4
aI2
aI2
aI2
aI0
aI0
aI0
aI2
aI0
aI2
aa(lp2573
I0
aI2
aI4
aI2
aI2
aI2
aI0
aI0
aI2
aI0
aI0
aI2
aI0
aI0
aI0
aI0
aa(lp2574
I0
aI2
aI0
aI0
aI2
aI0
aI0
aI4
aI0
aI2
aI4
aI0
aI2
aI0
aI0
aI0
aa(lp2575
I0
aI2
aI0
aI4
aI0
aI0
aI0
aI2
aI2
aI0
aI0
aI0
aI2
aI2
aI0
aI2
aa(lp2576
I0
aI0
aI0
aI2
aI0
aI4
aI2
aI0
aI0
aI0
aI0
aI2
aI0
aI4
aI2
aI0
aa(lp2577
I0
aI2
aI0
aI2
aI2
aI0
aI2
aI0
aI0
aI2
aI0
aI2
aI2
aI0
aI2
aI0
aa(lp2578
I0
aI0
aI4
aI2
aI0
aI2
aI0
aI0
aI2
aI2
aI0
aI2
aI2
aI0
aI0
aI0
aa(lp2579
I0
aI0
aI0
aI0
aI0
aI4
aI0
aI0
aI0
aI0
aI4
aI0
aI0
aI4
aI0
aI4
aa(lp2580
I0
aI0
aI0
aI0
aI2
aI0
aI0
aI2
aI2
aI2
aI0
aI4
aI0
aI2
aI0
aI2
aa(lp2581
I0
aI0
aI4
aI0
aI0
aI2
aI2
aI0
aI2
aI2
aI0
aI0
aI2
aI0
aI2
aI0
aa(lp2582
I0
aI0
aI0
aI2
aI0
aI0
aI2
aI4
aI0
aI0
aI4
aI2
aI0
aI0
aI2
aI0
aa(lp2583
I0
aI2
aI0
aI0
aI0
aI0
aI0
aI2
aI2
aI0
aI0
aI0
aI2
aI2
aI4
aI2
aa(lp2584
I0
aI0
aI0
aI2
aI0
aI0
aI2
aI0
aI0
aI0
aI4
aI2
aI0
aI0
aI2
aI4
aasg2481
g2482
sg2460
g563
sba(iclusterfk.Propagation
XORStep
p2585
(dp2586
g2458
g2056
sg2459
g2000
sg2460
g1583
sba(iclusterfk.Propagation
PermutationStep
p2587
(dp2588
g2459
g618
sg2487
g2488
sg2460
g2000
sba(iclusterfk.Propagation
MixColStep
p2589
(dp2590
g2459
g508
sg2460
g618
sba(iclusterfk.Propagation
SBOXStep
p2591
(dp2592
g2459
g1722
sg2463
(lp2593
(lp2594
I16
aI0
aI0
aI0
aI0
aI0
aI0
aI0
aI0
aI0
aI0
aI0
aI0
aI0
aI0
aI0
aa(lp2595
I0
aI2
aI4
aI0
aI2
aI2
aI2
aI0
aI2
aI0
aI0
aI0
aI0
aI0
aI2
aI0
aa(lp2596
I0
aI4
aI0
aI0
aI4
aI0
aI0
aI0
aI0
aI4
aI0
aI0
aI4
aI0
aI0
aI0
aa(lp2597
I0
aI0
aI0
aI0
aI2
aI0
aI4
aI2
aI2
aI2
aI0
aI0
aI0
aI2
aI0
aI2
aa(lp2598
I0
aI2
aI4
aI2
aI2
aI2
aI0
aI0
aI2
aI0
aI0
aI2
aI0
aI0
aI0
aI0
aa(lp2599
I0
aI2
aI0
aI0
aI2
aI0
aI0
aI4
aI0
aI2
aI4
aI0
aI2
aI0
aI0
aI0
aa(lp2600
I0
aI2
aI0
aI4
aI0
aI0
aI0
aI2
aI2
aI0
aI0
aI0
aI2
aI2
aI0
aI2
aa(lp2601
I0
aI0
aI0
aI2
aI0
aI4
aI2
aI0
aI0
aI0
aI0
aI2
aI0
aI4
aI2
aI0
aa(lp2602
I0
aI2
aI0
aI2
aI2
aI0
aI2
aI0
aI0
aI2
aI0
aI2
aI2
aI0
aI2
aI0
aa(lp2603
I0
aI0
aI4
aI2
aI0
aI2
aI0
aI0
aI2
aI2
aI0
aI2
aI2
aI0
aI0
aI0
aa(lp2604
I0
aI0
aI0
aI0
aI0
aI4
aI0
aI0
aI0
aI0
aI4
aI0
aI0
aI4
aI0
aI4
aa(lp2605
I0
aI0
aI0
aI0
aI2
aI0
aI0
aI2
aI2
aI2
aI0
aI4
aI0
aI2
aI0
aI2
aa(lp2606
I0
aI0
aI4
aI0
aI0
aI2
aI2
aI0
aI2
aI2
aI0
aI0
aI2
aI0
aI2
aI0
aa(lp2607
I0
aI0
aI0
aI2
aI0
aI0
aI2
aI4
aI0
aI0
aI4
aI2
aI0
aI0
aI2
aI0
aa(lp2608
I0
aI2
aI0
aI0
aI0
aI0
aI0
aI2
aI2
aI0
aI0
aI0
aI2
aI2
aI4
aI2
aa(lp2609
I0
aI0
aI0
aI2
aI0
aI0
aI2
aI0
aI0
aI0
aI4
aI2
aI0
aI0
aI2
aI4
aasg2481
g2482
sg2460
g508
sba(iclusterfk.Propagation
MixColStep
p2610
(dp2611
g2459
g2285
sg2460
g1722
sba(iclusterfk.Propagation
PermutationStep
p2612
(dp2613
g2459
g2208
sg2487
(I6
I5
I14
I15
I0
I1
I2
I3
I7
I12
I13
I4
I8
I9
I10
I11
tp2614
sg2460
g2166
sba(iclusterfk.Propagation
PermutationStep
p2615
(dp2616
g2459
g2082
sg2487
g2614
sg2460
g2208
sba(iclusterfk.Propagation
PermutationStep
p2617
(dp2618
g2459
g2124
sg2487
g2614
sg2460
g2082
sba(iclusterfk.Propagation
PermutationStep
p2619
(dp2620
g2459
g2014
sg2487
g2614
sg2460
g2124
sba(iclusterfk.Propagation
PermutationStep
p2621
(dp2622
g2459
g2056
sg2487
g2614
sg2460
g2014
sba(iclusterfk.Propagation
XORStep
p2623
(dp2624
g2458
g2166
sg2459
g1289
sg2460
g2327
sba(iclusterfk.Propagation
SBOXStep
p2625
(dp2626
g2459
g1051
sg2463
(lp2627
(lp2628
I16
aI0
aI0
aI0
aI0
aI0
aI0
aI0
aI0
aI0
aI0
aI0
aI0
aI0
aI0
aI0
aa(lp2629
I0
aI2
aI4
aI0
aI2
aI2
aI2
aI0
aI2
aI0
aI0
aI0
aI0
aI0
aI2
aI0
aa(lp2630
I0
aI4
aI0
aI0
aI4
aI0
aI0
aI0
aI0
aI4
aI0
aI0
aI4
aI0
aI0
aI0
aa(lp2631
I0
aI0
aI0
aI0
aI2
aI0
aI4
aI2
aI2
aI2
aI0
aI0
aI0
aI2
aI0
aI2
aa(lp2632
I0
aI2
aI4
aI2
aI2
aI2
aI0
aI0
aI2
aI0
aI0
aI2
aI0
aI0
aI0
aI0
aa(lp2633
I0
aI2
aI0
aI0
aI2
aI0
aI0
aI4
aI0
aI2
aI4
aI0
aI2
aI0
aI0
aI0
aa(lp2634
I0
aI2
aI0
aI4
aI0
aI0
aI0
aI2
aI2
aI0
aI0
aI0
aI2
aI2
aI0
aI2
aa(lp2635
I0
aI0
aI0
aI2
aI0
aI4
aI2
aI0
aI0
aI0
aI0
aI2
aI0
aI4
aI2
aI0
aa(lp2636
I0
aI2
aI0
aI2
aI2
aI0
aI2
aI0
aI0
aI2
aI0
aI2
aI2
aI0
aI2
aI0
aa(lp2637
I0
aI0
aI4
aI2
aI0
aI2
aI0
aI0
aI2
aI2
aI0
aI2
aI2
aI0
aI0
aI0
aa(lp2638
I0
aI0
aI0
aI0
aI0
aI4
aI0
aI0
aI0
aI0
aI4
aI0
aI0
aI4
aI0
aI4
aa(lp2639
I0
aI0
aI0
aI0
aI2
aI0
aI0
aI2
aI2
aI2
aI0
aI4
aI0
aI2
aI0
aI2
aa(lp2640
I0
aI0
aI4
aI0
aI0
aI2
aI2
aI0
aI2
aI2
aI0
aI0
aI2
aI0
aI2
aI0
aa(lp2641
I0
aI0
aI0
aI2
aI0
aI0
aI2
aI4
aI0
aI0
aI4
aI2
aI0
aI0
aI2
aI0
aa(lp2642
I0
aI2
aI0
aI0
aI0
aI0
aI0
aI2
aI2
aI0
aI0
aI0
aI2
aI2
aI4
aI2
aa(lp2643
I0
aI0
aI0
aI2
aI0
aI0
aI2
aI0
aI0
aI0
aI4
aI2
aI0
aI0
aI2
aI4
aasg2481
g2482
sg2460
g1289
sba(iclusterfk.Propagation
XORStep
p2644
(dp2645
g2458
g2208
sg2459
g1199
sg2460
g1051
sba(iclusterfk.Propagation
PermutationStep
p2646
(dp2647
g2459
g2369
sg2487
g2488
sg2460
g1199
sba(iclusterfk.Propagation
MixColStep
p2648
(dp2649
g2459
g1331
sg2460
g2369
sba(iclusterfk.Propagation
SBOXStep
p2650
(dp2651
g2459
g1145
sg2463
(lp2652
(lp2653
I16
aI0
aI0
aI0
aI0
aI0
aI0
aI0
aI0
aI0
aI0
aI0
aI0
aI0
aI0
aI0
aa(lp2654
I0
aI2
aI4
aI0
aI2
aI2
aI2
aI0
aI2
aI0
aI0
aI0
aI0
aI0
aI2
aI0
aa(lp2655
I0
aI4
aI0
aI0
aI4
aI0
aI0
aI0
aI0
aI4
aI0
aI0
aI4
aI0
aI0
aI0
aa(lp2656
I0
aI0
aI0
aI0
aI2
aI0
aI4
aI2
aI2
aI2
aI0
aI0
aI0
aI2
aI0
aI2
aa(lp2657
I0
aI2
aI4
aI2
aI2
aI2
aI0
aI0
aI2
aI0
aI0
aI2
aI0
aI0
aI0
aI0
aa(lp2658
I0
aI2
aI0
aI0
aI2
aI0
aI0
aI4
aI0
aI2
aI4
aI0
aI2
aI0
aI0
aI0
aa(lp2659
I0
aI2
aI0
aI4
aI0
aI0
aI0
aI2
aI2
aI0
aI0
aI0
aI2
aI2
aI0
aI2
aa(lp2660
I0
aI0
aI0
aI2
aI0
aI4
aI2
aI0
aI0
aI0
aI0
aI2
aI0
aI4
aI2
aI0
aa(lp2661
I0
aI2
aI0
aI2
aI2
aI0
aI2
aI0
aI0
aI2
aI0
aI2
aI2
aI0
aI2
aI0
aa(lp2662
I0
aI0
aI4
aI2
aI0
aI2
aI0
aI0
aI2
aI2
aI0
aI2
aI2
aI0
aI0
aI0
aa(lp2663
I0
aI0
aI0
aI0
aI0
aI4
aI0
aI0
aI0
aI0
aI4
aI0
aI0
aI4
aI0
aI4
aa(lp2664
I0
aI0
aI0
aI0
aI2
aI0
aI0
aI2
aI2
aI2
aI0
aI4
aI0
aI2
aI0
aI2
aa(lp2665
I0
aI0
aI4
aI0
aI0
aI2
aI2
aI0
aI2
aI2
aI0
aI0
aI2
aI0
aI2
aI0
aa(lp2666
I0
aI0
aI0
aI2
aI0
aI0
aI2
aI4
aI0
aI0
aI4
aI2
aI0
aI0
aI2
aI0
aa(lp2667
I0
aI2
aI0
aI0
aI0
aI0
aI0
aI2
aI2
aI0
aI0
aI0
aI2
aI2
aI4
aI2
aa(lp2668
I0
aI0
aI0
aI2
aI0
aI0
aI2
aI0
aI0
aI0
aI4
aI2
aI0
aI0
aI2
aI4
aasg2481
g2482
sg2460
g1331
sba(iclusterfk.Propagation
XORStep
p2669
(dp2670
g2458
g2082
sg2459
g993
sg2460
g1145
sba(iclusterfk.Propagation
PermutationStep
p2671
(dp2672
g2459
g2416
sg2487
g2488
sg2460
g993
sba(iclusterfk.Propagation
MixColStep
p2673
(dp2674
g2459
g1373
sg2460
g2416
sba(iclusterfk.Propagation
SBOXStep
p2675
(dp2676
g2459
g1764
sg2463
(lp2677
(lp2678
I16
aI0
aI0
aI0
aI0
aI0
aI0
aI0
aI0
aI0
aI0
aI0
aI0
aI0
aI0
aI0
aa(lp2679
I0
aI2
aI4
aI0
aI2
aI2
aI2
aI0
aI2
aI0
aI0
aI0
aI0
aI0
aI2
aI0
aa(lp2680
I0
aI4
aI0
aI0
aI4
aI0
aI0
aI0
aI0
aI4
aI0
aI0
aI4
aI0
aI0
aI0
aa(lp2681
I0
aI0
aI0
aI0
aI2
aI0
aI4
aI2
aI2
aI2
aI0
aI0
aI0
aI2
aI0
aI2
aa(lp2682
I0
aI2
aI4
aI2
aI2
aI2
aI0
aI0
aI2
aI0
aI0
aI2
aI0
aI0
aI0
aI0
aa(lp2683
I0
aI2
aI0
aI0
aI2
aI0
aI0
aI4
aI0
aI2
aI4
aI0
aI2
aI0
aI0
aI0
aa(lp2684
I0
aI2
aI0
aI4
aI0
aI0
aI0
aI2
aI2
aI0
aI0
aI0
aI2
aI2
aI0
aI2
aa(lp2685
I0
aI0
aI0
aI2
aI0
aI4
aI2
aI0
aI0
aI0
aI0
aI2
aI0
aI4
aI2
aI0
aa(lp2686
I0
aI2
aI0
aI2
aI2
aI0
aI2
aI0
aI0
aI2
aI0
aI2
aI2
aI0
aI2
aI0
aa(lp2687
I0
aI0
aI4
aI2
aI0
aI2
aI0
aI0
aI2
aI2
aI0
aI2
aI2
aI0
aI0
aI0
aa(lp2688
I0
aI0
aI0
aI0
aI0
aI4
aI0
aI0
aI0
aI0
aI4
aI0
aI0
aI4
aI0
aI4
aa(lp2689
I0
aI0
aI0
aI0
aI2
aI0
aI0
aI2
aI2
aI2
aI0
aI4
aI0
aI2
aI0
aI2
aa(lp2690
I0
aI0
aI4
aI0
aI0
aI2
aI2
aI0
aI2
aI2
aI0
aI0
aI2
aI0
aI2
aI0
aa(lp2691
I0
aI0
aI0
aI2
aI0
aI0
aI2
aI4
aI0
aI0
aI4
aI2
aI0
aI0
aI2
aI0
aa(lp2692
I0
aI2
aI0
aI0
aI0
aI0
aI0
aI2
aI2
aI0
aI0
aI0
aI2
aI2
aI4
aI2
aa(lp2693
I0
aI0
aI0
aI2
aI0
aI0
aI2
aI0
aI0
aI0
aI4
aI2
aI0
aI0
aI2
aI4
aasg2481
g2482
sg2460
g1373
sba(iclusterfk.Propagation
XORStep
p2694
(dp2695
g2458
g2124
sg2459
g2250
sg2460
g1764
sba(iclusterfk.Propagation
PermutationStep
p2696
(dp2697
g2459
g883
sg2487
g2488
sg2460
g2250
sba(iclusterfk.Propagation
MixColStep
p2698
(dp2699
g2459
g6
sg2460
g883
sba(iclusterfk.Propagation
SBOXStep
p2700
(dp2701
g2459
g1819
sg2463
(lp2702
(lp2703
I16
aI0
aI0
aI0
aI0
aI0
aI0
aI0
aI0
aI0
aI0
aI0
aI0
aI0
aI0
aI0
aa(lp2704
I0
aI2
aI4
aI0
aI2
aI2
aI2
aI0
aI2
aI0
aI0
aI0
aI0
aI0
aI2
aI0
aa(lp2705
I0
aI4
aI0
aI0
aI4
aI0
aI0
aI0
aI0
aI4
aI0
aI0
aI4
aI0
aI0
aI0
aa(lp2706
I0
aI0
aI0
aI0
aI2
aI0
aI4
aI2
aI2
aI2
aI0
aI0
aI0
aI2
aI0
aI2
aa(lp2707
I0
aI2
aI4
aI2
aI2
aI2
aI0
aI0
aI2
aI0
aI0
aI2
aI0
aI0
aI0
aI0
aa(lp2708
I0
aI2
aI0
aI0
aI2
aI0
aI0
aI4
aI0
aI2
aI4
aI0
aI2
aI0
aI0
aI0
aa(lp2709
I0
aI2
aI0
aI4
aI0
aI0
aI0
aI2
aI2
aI0
aI0
aI0
aI2
aI2
aI0
aI2
aa(lp2710
I0
aI0
aI0
aI2
aI0
aI4
aI2
aI0
aI0
aI0
aI0
aI2
aI0
aI4
aI2
aI0
aa(lp2711
I0
aI2
aI0
aI2
aI2
aI0
aI2
aI0
aI0
aI2
aI0
aI2
aI2
aI0
aI2
aI0
aa(lp2712
I0
aI0
aI4
aI2
aI0
aI2
aI0
aI0
aI2
aI2
aI0
aI2
aI2
aI0
aI0
aI0
aa(lp2713
I0
aI0
aI0
aI0
aI0
aI4
aI0
aI0
aI0
aI0
aI4
aI0
aI0
aI4
aI0
aI4
aa(lp2714
I0
aI0
aI0
aI0
aI2
aI0
aI0
aI2
aI2
aI2
aI0
aI4
aI0
aI2
aI0
aI2
aa(lp2715
I0
aI0
aI4
aI0
aI0
aI2
aI2
aI0
aI2
aI2
aI0
aI0
aI2
aI0
aI2
aI0
aa(lp2716
I0
aI0
aI0
aI2
aI0
aI0
aI2
aI4
aI0
aI0
aI4
aI2
aI0
aI0
aI2
aI0
aa(lp2717
I0
aI2
aI0
aI0
aI0
aI0
aI0
aI2
aI2
aI0
aI0
aI0
aI2
aI2
aI4
aI2
aa(lp2718
I0
aI0
aI0
aI2
aI0
aI0
aI2
aI0
aI0
aI0
aI4
aI2
aI0
aI0
aI2
aI4
aasg2481
g2482
sg2460
g6
sba(iclusterfk.Propagation
XORStep
p2719
(dp2720
g2458
g2014
sg2459
g1874
sg2460
g1819
sba(iclusterfk.Propagation
PermutationStep
p2721
(dp2722
g2459
g938
sg2487
g2488
sg2460
g1874
sba(iclusterfk.Propagation
MixColStep
p2723
(dp2724
g2459
g54
sg2460
g938
sba(iclusterfk.Propagation
SBOXStep
p2725
(dp2726
g2459
g1667
sg2463
(lp2727
(lp2728
I16
aI0
aI0
aI0
aI0
aI0
aI0
aI0
aI0
aI0
aI0
aI0
aI0
aI0
aI0
aI0
aa(lp2729
I0
aI2
aI4
aI0
aI2
aI2
aI2
aI0
aI2
aI0
aI0
aI0
aI0
aI0
aI2
aI0
aa(lp2730
I0
aI4
aI0
aI0
aI4
aI0
aI0
aI0
aI0
aI4
aI0
aI0
aI4
aI0
aI0
aI0
aa(lp2731
I0
aI0
aI0
aI0
aI2
aI0
aI4
aI2
aI2
aI2
aI0
aI0
aI0
aI2
aI0
aI2
aa(lp2732
I0
aI2
aI4
aI2
aI2
aI2
aI0
aI0
aI2
aI0
aI0
aI2
aI0
aI0
aI0
aI0
aa(lp2733
I0
aI2
aI0
aI0
aI2
aI0
aI0
aI4
aI0
aI2
aI4
aI0
aI2
aI0
aI0
aI0
aa(lp2734
I0
aI2
aI0
aI4
aI0
aI0
aI0
aI2
aI2
aI0
aI0
aI0
aI2
aI2
aI0
aI2
aa(lp2735
I0
aI0
aI0
aI2
aI0
aI4
aI2
aI0
aI0
aI0
aI0
aI2
aI0
aI4
aI2
aI0
aa(lp2736
I0
aI2
aI0
aI2
aI2
aI0
aI2
aI0
aI0
aI2
aI0
aI2
aI2
aI0
aI2
aI0
aa(lp2737
I0
aI0
aI4
aI2
aI0
aI2
aI0
aI0
aI2
aI2
aI0
aI2
aI2
aI0
aI0
aI0
aa(lp2738
I0
aI0
aI0
aI0
aI0
aI4
aI0
aI0
aI0
aI0
aI4
aI0
aI0
aI4
aI0
aI4
aa(lp2739
I0
aI0
aI0
aI0
aI2
aI0
aI0
aI2
aI2
aI2
aI0
aI4
aI0
aI2
aI0
aI2
aa(lp2740
I0
aI0
aI4
aI0
aI0
aI2
aI2
aI0
aI2
aI2
aI0
aI0
aI2
aI0
aI2
aI0
aa(lp2741
I0
aI0
aI0
aI2
aI0
aI0
aI2
aI4
aI0
aI0
aI4
aI2
aI0
aI0
aI2
aI0
aa(lp2742
I0
aI2
aI0
aI0
aI0
aI0
aI0
aI2
aI2
aI0
aI0
aI0
aI2
aI2
aI4
aI2
aa(lp2743
I0
aI0
aI0
aI2
aI0
aI0
aI2
aI0
aI0
aI0
aI4
aI2
aI0
aI0
aI2
aI4
aasg2481
g2482
sg2460
g54
sba(iclusterfk.Propagation
XORStep
p2744
(dp2745
g2458
g2056
sg2459
g1955
sg2460
g1667
sba(iclusterfk.Propagation
PermutationStep
p2746
(dp2747
g2459
g702
sg2487
g2488
sg2460
g1955
sba(iclusterfk.Propagation
MixColStep
p2748
(dp2749
g2459
g466
sg2460
g702
sba(iclusterfk.Propagation
SBOXStep
p2750
(dp2751
g2459
g2285
sg2463
(lp2752
(lp2753
I16
aI0
aI0
aI0
aI0
aI0
aI0
aI0
aI0
aI0
aI0
aI0
aI0
aI0
aI0
aI0
aa(lp2754
I0
aI2
aI4
aI0
aI2
aI2
aI2
aI0
aI2
aI0
aI0
aI0
aI0
aI0
aI2
aI0
aa(lp2755
I0
aI4
aI0
aI0
aI4
aI0
aI0
aI0
aI0
aI4
aI0
aI0
aI4
aI0
aI0
aI0
aa(lp2756
I0
aI0
aI0
aI0
aI2
aI0
aI4
aI2
aI2
aI2
aI0
aI0
aI0
aI2
aI0
aI2
aa(lp2757
I0
aI2
aI4
aI2
aI2
aI2
aI0
aI0
aI2
aI0
aI0
aI2
aI0
aI0
aI0
aI0
aa(lp2758
I0
aI2
aI0
aI0
aI2
aI0
aI0
aI4
aI0
aI2
aI4
aI0
aI2
aI0
aI0
aI0
aa(lp2759
I0
aI2
aI0
aI4
aI0
aI0
aI0
aI2
aI2
aI0
aI0
aI0
aI2
aI2
aI0
aI2
aa(lp2760
I0
aI0
aI0
aI2
aI0
aI4
aI2
aI0
aI0
aI0
aI0
aI2
aI0
aI4
aI2
aI0
aa(lp2761
I0
aI2
aI0
aI2
aI2
aI0
aI2
aI0
aI0
aI2
aI0
aI2
aI2
aI0
aI2
aI0
aa(lp2762
I0
aI0
aI4
aI2
aI0
aI2
aI0
aI0
aI2
aI2
aI0
aI2
aI2
aI0
aI0
aI0
aa(lp2763
I0
aI0
aI0
aI0
aI0
aI4
aI0
aI0
aI0
aI0
aI4
aI0
aI0
aI4
aI0
aI4
aa(lp2764
I0
aI0
aI0
aI0
aI2
aI0
aI0
aI2
aI2
aI2
aI0
aI4
aI0
aI2
aI0
aI2
aa(lp2765
I0
aI0
aI4
aI0
aI0
aI2
aI2
aI0
aI2
aI2
aI0
aI0
aI2
aI0
aI2
aI0
aa(lp2766
I0
aI0
aI0
aI2
aI0
aI0
aI2
aI4
aI0
aI0
aI4
aI2
aI0
aI0
aI2
aI0
aa(lp2767
I0
aI2
aI0
aI0
aI0
aI0
aI0
aI2
aI2
aI0
aI0
aI0
aI2
aI2
aI4
aI2
aa(lp2768
I0
aI0
aI0
aI2
aI0
aI0
aI2
aI0
aI0
aI0
aI4
aI2
aI0
aI0
aI2
aI4
aasg2481
g2482
sg2460
g466
sbasS'colorlist'
p2769
(dp2770
c__builtin__
frozenset
p2771
((lp2772
I10
atRp2773
S'#dc322f'
p2774
sg2771
((lp2775
I1
aI3
aI4
aI5
aI6
aI7
aI9
aI10
aI11
aI12
aI13
aI14
aI15
atRp2776
S'#b58900'
p2777
sg2771
((lp2778
I0
aI1
aI2
aI3
aI4
aI5
aI6
aI7
aI8
aI9
aI10
aI11
aI12
aI13
aI14
aI15
atRp2779
S'#6c71c4'
p2780
sg2771
((lp2781
I10
aI15
aI13
aI5
atRp2782
S'#859900'
p2783
sg2771
((lp2784
I0
aI7
aI5
aI15
atRp2785
S'#999999'
p2786
sg2771
((lp2787
I1
aI2
aI3
aI4
aI5
aI6
aI7
aI8
aI9
aI10
aI11
aI12
aI13
aI14
aI15
atRp2788
S'#268bd2'
p2789
sg2771
((lp2790
I0
aI2
aI5
aI7
aI8
aI10
aI15
atRp2791
S'#cccccc'
p2792
sg2771
((lp2793
I0
aI1
aI2
aI3
aI4
aI5
aI6
aI7
aI8
aI9
aI11
aI12
aI13
aI14
aI15
atRp2794
S'#2aa198'
p2795
sg2771
((lp2796
I0
aI1
aI3
aI4
aI5
aI6
aI7
aI9
aI10
aI11
aI12
aI13
aI14
aI15
atRp2797
S'#d33682'
p2798
sg2771
((lp2799
I0
aI1
aI3
aI4
aI5
aI6
aI7
aI9
aI11
aI12
aI13
aI14
aI15
atRp2800
S'#cb4b16'
p2801
ssS'rounds'
p2802
I5
sS'probabilities'
p2803
(lp2804
(iclusterfk.Probability
FullroundStep
p2805
(dp2806
S'addstate'
p2807
g1415
sg2481
g2482
sS'P'
g2488
sg2458
g2208
sg2463
(lp2808
(lp2809
I16
aI0
aI0
aI0
aI0
aI0
aI0
aI0
aI0
aI0
aI0
aI0
aI0
aI0
aI0
aI0
aa(lp2810
I0
aI2
aI4
aI0
aI2
aI2
aI2
aI0
aI2
aI0
aI0
aI0
aI0
aI0
aI2
aI0
aa(lp2811
I0
aI4
aI0
aI0
aI4
aI0
aI0
aI0
aI0
aI4
aI0
aI0
aI4
aI0
aI0
aI0
aa(lp2812
I0
aI0
aI0
aI0
aI2
aI0
aI4
aI2
aI2
aI2
aI0
aI0
aI0
aI2
aI0
aI2
aa(lp2813
I0
aI2
aI4
aI2
aI2
aI2
aI0
aI0
aI2
aI0
aI0
aI2
aI0
aI0
aI0
aI0
aa(lp2814
I0
aI2
aI0
aI0
aI2
aI0
aI0
aI4
aI0
aI2
aI4
aI0
aI2
aI0
aI0
aI0
aa(lp2815
I0
aI2
aI0
aI4
aI0
aI0
aI0
aI2
aI2
aI0
aI0
aI0
aI2
aI2
aI0
aI2
aa(lp2816
I0
aI0
aI0
aI2
aI0
aI4
aI2
aI0
aI0
aI0
aI0
aI2
aI0
aI4
aI2
aI0
aa(lp2817
I0
aI2
aI0
aI2
aI2
aI0
aI2
aI0
aI0
aI2
aI0
aI2
aI2
aI0
aI2
aI0
aa(lp2818
I0
aI0
aI4
aI2
aI0
aI2
aI0
aI0
aI2
aI2
aI0
aI2
aI2
aI0
aI0
aI0
aa(lp2819
I0
aI0
aI0
aI0
aI0
aI4
aI0
aI0
aI0
aI0
aI4
aI0
aI0
aI4
aI0
aI4
aa(lp2820
I0
aI0
aI0
aI0
aI2
aI0
aI0
aI2
aI2
aI2
aI0
aI4
aI0
aI2
aI0
aI2
aa(lp2821
I0
aI0
aI4
aI0
aI0
aI2
aI2
aI0
aI2
aI2
aI0
aI0
aI2
aI0
aI2
aI0
aa(lp2822
I0
aI0
aI0
aI2
aI0
aI0
aI2
aI4
aI0
aI0
aI4
aI2
aI0
aI0
aI2
aI0
aa(lp2823
I0
aI2
aI0
aI0
aI0
aI0
aI0
aI2
aI2
aI0
aI0
aI0
aI2
aI2
aI4
aI2
aa(lp2824
I0
aI0
aI0
aI2
aI0
aI0
aI2
aI0
aI0
aI0
aI4
aI2
aI0
aI0
aI2
aI4
aasS'sboxstate'
p2825
g279
sS'mixcolstate'
p2826
g757
sS'sboxstate2'
p2827
g209
sS'permstate'
p2828
g1933
sS'round'
p2829
I0
sba(iclusterfk.Probability
FullroundStep
p2830
(dp2831
g2807
g1541
sg2481
g2482
sS'P'
g2488
sg2458
g2082
sg2463
(lp2832
(lp2833
I16
aI0
aI0
aI0
aI0
aI0
aI0
aI0
aI0
aI0
aI0
aI0
aI0
aI0
aI0
aI0
aa(lp2834
I0
aI2
aI4
aI0
aI2
aI2
aI2
aI0
aI2
aI0
aI0
aI0
aI0
aI0
aI2
aI0
aa(lp2835
I0
aI4
aI0
aI0
aI4
aI0
aI0
aI0
aI0
aI4
aI0
aI0
aI4
aI0
aI0
aI0
aa(lp2836
I0
aI0
aI0
aI0
aI2
aI0
aI4
aI2
aI2
aI2
aI0
aI0
aI0
aI2
aI0
aI2
aa(lp2837
I0
aI2
aI4
aI2
aI2
aI2
aI0
aI0
aI2
aI0
aI0
aI2
aI0
aI0
aI0
aI0
aa(lp2838
I0
aI2
aI0
aI0
aI2
aI0
aI0
aI4
aI0
aI2
aI4
aI0
aI2
aI0
aI0
aI0
aa(lp2839
I0
aI2
aI0
aI4
aI0
aI0
aI0
aI2
aI2
aI0
aI0
aI0
aI2
aI2
aI0
aI2
aa(lp2840
I0
aI0
aI0
aI2
aI0
aI4
aI2
aI0
aI0
aI0
aI0
aI2
aI0
aI4
aI2
aI0
aa(lp2841
I0
aI2
aI0
aI2
aI2
aI0
aI2
aI0
aI0
aI2
aI0
aI2
aI2
aI0
aI2
aI0
aa(lp2842
I0
aI0
aI4
aI2
aI0
aI2
aI0
aI0
aI2
aI2
aI0
aI2
aI2
aI0
aI0
aI0
aa(lp2843
I0
aI0
aI0
aI0
aI0
aI4
aI0
aI0
aI0
aI0
aI4
aI0
aI0
aI4
aI0
aI4
aa(lp2844
I0
aI0
aI0
aI0
aI2
aI0
aI0
aI2
aI2
aI2
aI0
aI4
aI0
aI2
aI0
aI2
aa(lp2845
I0
aI0
aI4
aI0
aI0
aI2
aI2
aI0
aI2
aI2
aI0
aI0
aI2
aI0
aI2
aI0
aa(lp2846
I0
aI0
aI0
aI2
aI0
aI0
aI2
aI4
aI0
aI0
aI4
aI2
aI0
aI0
aI2
aI0
aa(lp2847
I0
aI2
aI0
aI0
aI0
aI0
aI0
aI2
aI2
aI0
aI0
aI0
aI2
aI2
aI4
aI2
aa(lp2848
I0
aI0
aI0
aI2
aI0
aI0
aI2
aI0
aI0
aI0
aI4
aI2
aI0
aI0
aI2
aI4
aasg2825
g209
sg2826
g841
sg2827
g151
sg2828
g1905
sg2829
I1
sba(iclusterfk.Probability
FullroundStep
p2849
(dp2850
g2807
g1499
sg2481
g2482
sS'P'
g2488
sg2458
g2124
sg2463
(lp2851
(lp2852
I16
aI0
aI0
aI0
aI0
aI0
aI0
aI0
aI0
aI0
aI0
aI0
aI0
aI0
aI0
aI0
aa(lp2853
I0
aI2
aI4
aI0
aI2
aI2
aI2
aI0
aI2
aI0
aI0
aI0
aI0
aI0
aI2
aI0
aa(lp2854
I0
aI4
aI0
aI0
aI4
aI0
aI0
aI0
aI0
aI4
aI0
aI0
aI4
aI0
aI0
aI0
aa(lp2855
I0
aI0
aI0
aI0
aI2
aI0
aI4
aI2
aI2
aI2
aI0
aI0
aI0
aI2
aI0
aI2
aa(lp2856
I0
aI2
aI4
aI2
aI2
aI2
aI0
aI0
aI2
aI0
aI0
aI2
aI0
aI0
aI0
aI0
aa(lp2857
I0
aI2
aI0
aI0
aI2
aI0
aI0
aI4
aI0
aI2
aI4
aI0
aI2
aI0
aI0
aI0
aa(lp2858
I0
aI2
aI0
aI4
aI0
aI0
aI0
aI2
aI2
aI0
aI0
aI0
aI2
aI2
aI0
aI2
aa(lp2859
I0
aI0
aI0
aI2
aI0
aI4
aI2
aI0
aI0
aI0
aI0
aI2
aI0
aI4
aI2
aI0
aa(lp2860
I0
aI2
aI0
aI2
aI2
aI0
aI2
aI0
aI0
aI2
aI0
aI2
aI2
aI0
aI2
aI0
aa(lp2861
I0
aI0
aI4
aI2
aI0
aI2
aI0
aI0
aI2
aI2
aI0
aI2
aI2
aI0
aI0
aI0
aa(lp2862
I0
aI0
aI0
aI0
aI0
aI4
aI0
aI0
aI0
aI0
aI4
aI0
aI0
aI4
aI0
aI4
aa(lp2863
I0
aI0
aI0
aI0
aI2
aI0
aI0
aI2
aI2
aI2
aI0
aI4
aI0
aI2
aI0
aI2
aa(lp2864
I0
aI0
aI4
aI0
aI0
aI2
aI2
aI0
aI2
aI2
aI0
aI0
aI2
aI0
aI2
aI0
aa(lp2865
I0
aI0
aI0
aI2
aI0
aI0
aI2
aI4
aI0
aI0
aI4
aI2
aI0
aI0
aI2
aI0
aa(lp2866
I0
aI2
aI0
aI0
aI0
aI0
aI0
aI2
aI2
aI0
aI0
aI0
aI2
aI2
aI4
aI2
aa(lp2867
I0
aI0
aI0
aI2
aI0
aI0
aI2
aI0
aI0
aI0
aI4
aI2
aI0
aI0
aI2
aI4
aasg2825
g151
sg2826
g799
sg2827
g96
sg2828
g1919
sg2829
I2
sba(iclusterfk.Probability
FullroundStep
p2868
(dp2869
g2807
g1625
sg2481
g2482
sS'P'
g2488
sg2458
g2014
sg2463
(lp2870
(lp2871
I16
aI0
aI0
aI0
aI0
aI0
aI0
aI0
aI0
aI0
aI0
aI0
aI0
aI0
aI0
aI0
aa(lp2872
I0
aI2
aI4
aI0
aI2
aI2
aI2
aI0
aI2
aI0
aI0
aI0
aI0
aI0
aI2
aI0
aa(lp2873
I0
aI4
aI0
aI0
aI4
aI0
aI0
aI0
aI0
aI4
aI0
aI0
aI4
aI0
aI0
aI0
aa(lp2874
I0
aI0
aI0
aI0
aI2
aI0
aI4
aI2
aI2
aI2
aI0
aI0
aI0
aI2
aI0
aI2
aa(lp2875
I0
aI2
aI4
aI2
aI2
aI2
aI0
aI0
aI2
aI0
aI0
aI2
aI0
aI0
aI0
aI0
aa(lp2876
I0
aI2
aI0
aI0
aI2
aI0
aI0
aI4
aI0
aI2
aI4
aI0
aI2
aI0
aI0
aI0
aa(lp2877
I0
aI2
aI0
aI4
aI0
aI0
aI0
aI2
aI2
aI0
aI0
aI0
aI2
aI2
aI0
aI2
aa(lp2878
I0
aI0
aI0
aI2
aI0
aI4
aI2
aI0
aI0
aI0
aI0
aI2
aI0
aI4
aI2
aI0
aa(lp2879
I0
aI2
aI0
aI2
aI2
aI0
aI2
aI0
aI0
aI2
aI0
aI2
aI2
aI0
aI2
aI0
aa(lp2880
I0
aI0
aI4
aI2
aI0
aI2
aI0
aI0
aI2
aI2
aI0
aI2
aI2
aI0
aI0
aI0
aa(lp2881
I0
aI0
aI0
aI0
aI0
aI4
aI0
aI0
aI0
aI0
aI4
aI0
aI0
aI4
aI0
aI4
aa(lp2882
I0
aI0
aI0
aI0
aI2
aI0
aI0
aI2
aI2
aI2
aI0
aI4
aI0
aI2
aI0
aI2
aa(lp2883
I0
aI0
aI4
aI0
aI0
aI2
aI2
aI0
aI2
aI2
aI0
aI0
aI2
aI0
aI2
aI0
aa(lp2884
I0
aI0
aI0
aI2
aI0
aI0
aI2
aI4
aI0
aI0
aI4
aI2
aI0
aI0
aI2
aI0
aa(lp2885
I0
aI2
aI0
aI0
aI0
aI0
aI0
aI2
aI2
aI0
aI0
aI0
aI2
aI2
aI4
aI2
aa(lp2886
I0
aI0
aI0
aI2
aI0
aI0
aI2
aI0
aI0
aI0
aI4
aI2
aI0
aI0
aI2
aI4
aasg2825
g96
sg2826
g660
sg2827
g563
sg2828
g1990
sg2829
I3
sba(iclusterfk.Probability
FullroundStep
p2887
(dp2888
g2807
g1583
sg2481
g2482
sS'P'
g2488
sg2458
g2056
sg2463
(lp2889
(lp2890
I16
aI0
aI0
aI0
aI0
aI0
aI0
aI0
aI0
aI0
aI0
aI0
aI0
aI0
aI0
aI0
aa(lp2891
I0
aI2
aI4
aI0
aI2
aI2
aI2
aI0
aI2
aI0
aI0
aI0
aI0
aI0
aI2
aI0
aa(lp2892
I0
aI4
aI0
aI0
aI4
aI0
aI0
aI0
aI0
aI4
aI0
aI0
aI4
aI0
aI0
aI0
aa(lp2893
I0
aI0
aI0
aI0
aI2
aI0
aI4
aI2
aI2
aI2
aI0
aI0
aI0
aI2
aI0
aI2
aa(lp2894
I0
aI2
aI4
aI2
aI2
aI2
aI0
aI0
aI2
aI0
aI0
aI2
aI0
aI0
aI0
aI0
aa(lp2895
I0
aI2
aI0
aI0
aI2
aI0
aI0
aI4
aI0
aI2
aI4
aI0
aI2
aI0
aI0
aI0
aa(lp2896
I0
aI2
aI0
aI4
aI0
aI0
aI0
aI2
aI2
aI0
aI0
aI0
aI2
aI2
aI0
aI2
aa(lp2897
I0
aI0
aI0
aI2
aI0
aI4
aI2
aI0
aI0
aI0
aI0
aI2
aI0
aI4
aI2
aI0
aa(lp2898
I0
aI2
aI0
aI2
aI2
aI0
aI2
aI0
aI0
aI2
aI0
aI2
aI2
aI0
aI2
aI0
aa(lp2899
I0
aI0
aI4
aI2
aI0
aI2
aI0
aI0
aI2
aI2
aI0
aI2
aI2
aI0
aI0
aI0
aa(lp2900
I0
aI0
aI0
aI0
aI0
aI4
aI0
aI0
aI0
aI0
aI4
aI0
aI0
aI4
aI0
aI4
aa(lp2901
I0
aI0
aI0
aI0
aI2
aI0
aI0
aI2
aI2
aI2
aI0
aI4
aI0
aI2
aI0
aI2
aa(lp2902
I0
aI0
aI4
aI0
aI0
aI2
aI2
aI0
aI2
aI2
aI0
aI0
aI2
aI0
aI2
aI0
aa(lp2903
I0
aI0
aI0
aI2
aI0
aI0
aI2
aI4
aI0
aI0
aI4
aI2
aI0
aI0
aI2
aI0
aa(lp2904
I0
aI2
aI0
aI0
aI0
aI0
aI0
aI2
aI2
aI0
aI0
aI0
aI2
aI2
aI4
aI2
aa(lp2905
I0
aI0
aI0
aI2
aI0
aI0
aI2
aI0
aI0
aI0
aI4
aI2
aI0
aI0
aI2
aI4
aasg2825
g563
sg2826
g618
sg2827
g508
sg2828
g2000
sg2829
I4
sba(iclusterfk.Probability
MantisInnerRoundStep
p2906
(dp2907
S'sboxstatein'
p2908
g508
sg2481
g2482
sg2463
(lp2909
(lp2910
I16
aI0
aI0
aI0
aI0
aI0
aI0
aI0
aI0
aI0
aI0
aI0
aI0
aI0
aI0
aI0
aa(lp2911
I0
aI2
aI4
aI0
aI2
aI2
aI2
aI0
aI2
aI0
aI0
aI0
aI0
aI0
aI2
aI0
aa(lp2912
I0
aI4
aI0
aI0
aI4
aI0
aI0
aI0
aI0
aI4
aI0
aI0
aI4
aI0
aI0
aI0
aa(lp2913
I0
aI0
aI0
aI0
aI2
aI0
aI4
aI2
aI2
aI2
aI0
aI0
aI0
aI2
aI0
aI2
aa(lp2914
I0
aI2
aI4
aI2
aI2
aI2
aI0
aI0
aI2
aI0
aI0
aI2
aI0
aI0
aI0
aI0
aa(lp2915
I0
aI2
aI0
aI0
aI2
aI0
aI0
aI4
aI0
aI2
aI4
aI0
aI2
aI0
aI0
aI0
aa(lp2916
I0
aI2
aI0
aI4
aI0
aI0
aI0
aI2
aI2
aI0
aI0
aI0
aI2
aI2
aI0
aI2
aa(lp2917
I0
aI0
aI0
aI2
aI0
aI4
aI2
aI0
aI0
aI0
aI0
aI2
aI0
aI4
aI2
aI0
aa(lp2918
I0
aI2
aI0
aI2
aI2
aI0
aI2
aI0
aI0
aI2
aI0
aI2
aI2
aI0
aI2
aI0
aa(lp2919
I0
aI0
aI4
aI2
aI0
aI2
aI0
aI0
aI2
aI2
aI0
aI2
aI2
aI0
aI0
aI0
aa(lp2920
I0
aI0
aI0
aI0
aI0
aI4
aI0
aI0
aI0
aI0
aI4
aI0
aI0
aI4
aI0
aI4
aa(lp2921
I0
aI0
aI0
aI0
aI2
aI0
aI0
aI2
aI2
aI2
aI0
aI4
aI0
aI2
aI0
aI2
aa(lp2922
I0
aI0
aI4
aI0
aI0
aI2
aI2
aI0
aI2
aI2
aI0
aI0
aI2
aI0
aI2
aI0
aa(lp2923
I0
aI0
aI0
aI2
aI0
aI0
aI2
aI4
aI0
aI0
aI4
aI2
aI0
aI0
aI2
aI0
aa(lp2924
I0
aI2
aI0
aI0
aI0
aI0
aI0
aI2
aI2
aI0
aI0
aI0
aI2
aI2
aI4
aI2
aa(lp2925
I0
aI0
aI0
aI2
aI0
aI0
aI2
aI0
aI0
aI0
aI4
aI2
aI0
aI0
aI2
aI4
aasS'sboxstateout'
p2926
g466
sS'mixcolstatein'
p2927
g1722
sS'mixcolstateout'
p2928
g2285
sba(iclusterfk.Probability
FullroundInverseStep
p2929
(dp2930
g2807
g1667
sg2481
g2482
sS'P'
g2488
sg2458
g2056
sg2463
(lp2931
(lp2932
I16
aI0
aI0
aI0
aI0
aI0
aI0
aI0
aI0
aI0
aI0
aI0
aI0
aI0
aI0
aI0
aa(lp2933
I0
aI2
aI4
aI0
aI2
aI2
aI2
aI0
aI2
aI0
aI0
aI0
aI0
aI0
aI2
aI0
aa(lp2934
I0
aI4
aI0
aI0
aI4
aI0
aI0
aI0
aI0
aI4
aI0
aI0
aI4
aI0
aI0
aI0
aa(lp2935
I0
aI0
aI0
aI0
aI2
aI0
aI4
aI2
aI2
aI2
aI0
aI0
aI0
aI2
aI0
aI2
aa(lp2936
I0
aI2
aI4
aI2
aI2
aI2
aI0
aI0
aI2
aI0
aI0
aI2
aI0
aI0
aI0
aI0
aa(lp2937
I0
aI2
aI0
aI0
aI2
aI0
aI0
aI4
aI0
aI2
aI4
aI0
aI2
aI0
aI0
aI0
aa(lp2938
I0
aI2
aI0
aI4
aI0
aI0
aI0
aI2
aI2
aI0
aI0
aI0
aI2
aI2
aI0
aI2
aa(lp2939
I0
aI0
aI0
aI2
aI0
aI4
aI2
aI0
aI0
aI0
aI0
aI2
aI0
aI4
aI2
aI0
aa(lp2940
I0
aI2
aI0
aI2
aI2
aI0
aI2
aI0
aI0
aI2
aI0
aI2
aI2
aI0
aI2
aI0
aa(lp2941
I0
aI0
aI4
aI2
aI0
aI2
aI0
aI0
aI2
aI2
aI0
aI2
aI2
aI0
aI0
aI0
aa(lp2942
I0
aI0
aI0
aI0
aI0
aI4
aI0
aI0
aI0
aI0
aI4
aI0
aI0
aI4
aI0
aI4
aa(lp2943
I0
aI0
aI0
aI0
aI2
aI0
aI0
aI2
aI2
aI2
aI0
aI4
aI0
aI2
aI0
aI2
aa(lp2944
I0
aI0
aI4
aI0
aI0
aI2
aI2
aI0
aI2
aI2
aI0
aI0
aI2
aI0
aI2
aI0
aa(lp2945
I0
aI0
aI0
aI2
aI0
aI0
aI2
aI4
aI0
aI0
aI4
aI2
aI0
aI0
aI2
aI0
aa(lp2946
I0
aI2
aI0
aI0
aI0
aI0
aI0
aI2
aI2
aI0
aI0
aI0
aI2
aI2
aI4
aI2
aa(lp2947
I0
aI0
aI0
aI2
aI0
aI0
aI2
aI0
aI0
aI0
aI4
aI2
aI0
aI0
aI2
aI4
aasg2825
g466
sg2826
g702
sg2827
g54
sg2828
g1955
sg2829
I7
sba(iclusterfk.Probability
FullroundInverseStep
p2948
(dp2949
g2807
g1819
sg2481
g2482
sS'P'
g2488
sg2458
g2014
sg2463
(lp2950
(lp2951
I16
aI0
aI0
aI0
aI0
aI0
aI0
aI0
aI0
aI0
aI0
aI0
aI0
aI0
aI0
aI0
aa(lp2952
I0
aI2
aI4
aI0
aI2
aI2
aI2
aI0
aI2
aI0
aI0
aI0
aI0
aI0
aI2
aI0
aa(lp2953
I0
aI4
aI0
aI0
aI4
aI0
aI0
aI0
aI0
aI4
aI0
aI0
aI4
aI0
aI0
aI0
aa(lp2954
I0
aI0
aI0
aI0
aI2
aI0
aI4
aI2
aI2
aI2
aI0
aI0
aI0
aI2
aI0
aI2
aa(lp2955
I0
aI2
aI4
aI2
aI2
aI2
aI0
aI0
aI2
aI0
aI0
aI2
aI0
aI0
aI0
aI0
aa(lp2956
I0
aI2
aI0
aI0
aI2
aI0
aI0
aI4
aI0
aI2
aI4
aI0
aI2
aI0
aI0
aI0
aa(lp2957
I0
aI2
aI0
aI4
aI0
aI0
aI0
aI2
aI2
aI0
aI0
aI0
aI2
aI2
aI0
aI2
aa(lp2958
I0
aI0
aI0
aI2
aI0
aI4
aI2
aI0
aI0
aI0
aI0
aI2
aI0
aI4
aI2
aI0
aa(lp2959
I0
aI2
aI0
aI2
aI2
aI0
aI2
aI0
aI0
aI2
aI0
aI2
aI2
aI0
aI2
aI0
aa(lp2960
I0
aI0
aI4
aI2
aI0
aI2
aI0
aI0
aI2
aI2
aI0
aI2
aI2
aI0
aI0
aI0
aa(lp2961
I0
aI0
aI0
aI0
aI0
aI4
aI0
aI0
aI0
aI0
aI4
aI0
aI0
aI4
aI0
aI4
aa(lp2962
I0
aI0
aI0
aI0
aI2
aI0
aI0
aI2
aI2
aI2
aI0
aI4
aI0
aI2
aI0
aI2
aa(lp2963
I0
aI0
aI4
aI0
aI0
aI2
aI2
aI0
aI2
aI2
aI0
aI0
aI2
aI0
aI2
aI0
aa(lp2964
I0
aI0
aI0
aI2
aI0
aI0
aI2
aI4
aI0
aI0
aI4
aI2
aI0
aI0
aI2
aI0
aa(lp2965
I0
aI2
aI0
aI0
aI0
aI0
aI0
aI2
aI2
aI0
aI0
aI0
aI2
aI2
aI4
aI2
aa(lp2966
I0
aI0
aI0
aI2
aI0
aI0
aI2
aI0
aI0
aI0
aI4
aI2
aI0
aI0
aI2
aI4
aasg2825
g54
sg2826
g938
sg2827
g6
sg2828
g1874
sg2829
I8
sba(iclusterfk.Probability
FullroundInverseStep
p2967
(dp2968
g2807
g1764
sg2481
g2482
sS'P'
g2488
sg2458
g2124
sg2463
(lp2969
(lp2970
I16
aI0
aI0
aI0
aI0
aI0
aI0
aI0
aI0
aI0
aI0
aI0
aI0
aI0
aI0
aI0
aa(lp2971
I0
aI2
aI4
aI0
aI2
aI2
aI2
aI0
aI2
aI0
aI0
aI0
aI0
aI0
aI2
aI0
aa(lp2972
I0
aI4
aI0
aI0
aI4
aI0
aI0
aI0
aI0
aI4
aI0
aI0
aI4
aI0
aI0
aI0
aa(lp2973
I0
aI0
aI0
aI0
aI2
aI0
aI4
aI2
aI2
aI2
aI0
aI0
aI0
aI2
aI0
aI2
aa(lp2974
I0
aI2
aI4
aI2
aI2
aI2
aI0
aI0
aI2
aI0
aI0
aI2
aI0
aI0
aI0
aI0
aa(lp2975
I0
aI2
aI0
aI0
aI2
aI0
aI0
aI4
aI0
aI2
aI4
aI0
aI2
aI0
aI0
aI0
aa(lp2976
I0
aI2
aI0
aI4
aI0
aI0
aI0
aI2
aI2
aI0
aI0
aI0
aI2
aI2
aI0
aI2
aa(lp2977
I0
aI0
aI0
aI2
aI0
aI4
aI2
aI0
aI0
aI0
aI0
aI2
aI0
aI4
aI2
aI0
aa(lp2978
I0
aI2
aI0
aI2
aI2
aI0
aI2
aI0
aI0
aI2
aI0
aI2
aI2
aI0
aI2
aI0
aa(lp2979
I0
aI0
aI4
aI2
aI0
aI2
aI0
aI0
aI2
aI2
aI0
aI2
aI2
aI0
aI0
aI0
aa(lp2980
I0
aI0
aI0
aI0
aI0
aI4
aI0
aI0
aI0
aI0
aI4
aI0
aI0
aI4
aI0
aI4
aa(lp2981
I0
aI0
aI0
aI0
aI2
aI0
aI0
aI2
aI2
aI2
aI0
aI4
aI0
aI2
aI0
aI2
aa(lp2982
I0
aI0
aI4
aI0
aI0
aI2
aI2
aI0
aI2
aI2
aI0
aI0
aI2
aI0
aI2
aI0
aa(lp2983
I0
aI0
aI0
aI2
aI0
aI0
aI2
aI4
aI0
aI0
aI4
aI2
aI0
aI0
aI2
aI0
aa(lp2984
I0
aI2
aI0
aI0
aI0
aI0
aI0
aI2
aI2
aI0
aI0
aI0
aI2
aI2
aI4
aI2
aa(lp2985
I0
aI0
aI0
aI2
aI0
aI0
aI2
aI0
aI0
aI0
aI4
aI2
aI0
aI0
aI2
aI4
aasg2825
g6
sg2826
g883
sg2827
g1373
sg2828
g2250
sg2829
I9
sba(iclusterfk.Probability
FullroundInverseStep
p2986
(dp2987
g2807
g1145
sg2481
g2482
sS'P'
g2488
sg2458
g2082
sg2463
(lp2988
(lp2989
I16
aI0
aI0
aI0
aI0
aI0
aI0
aI0
aI0
aI0
aI0
aI0
aI0
aI0
aI0
aI0
aa(lp2990
I0
aI2
aI4
aI0
aI2
aI2
aI2
aI0
aI2
aI0
aI0
aI0
aI0
aI0
aI2
aI0
aa(lp2991
I0
aI4
aI0
aI0
aI4
aI0
aI0
aI0
aI0
aI4
aI0
aI0
aI4
aI0
aI0
aI0
aa(lp2992
I0
aI0
aI0
aI0
aI2
aI0
aI4
aI2
aI2
aI2
aI0
aI0
aI0
aI2
aI0
aI2
aa(lp2993
I0
aI2
aI4
aI2
aI2
aI2
aI0
aI0
aI2
aI0
aI0
aI2
aI0
aI0
aI0
aI0
aa(lp2994
I0
aI2
aI0
aI0
aI2
aI0
aI0
aI4
aI0
aI2
aI4
aI0
aI2
aI0
aI0
aI0
aa(lp2995
I0
aI2
aI0
aI4
aI0
aI0
aI0
aI2
aI2
aI0
aI0
aI0
aI2
aI2
aI0
aI2
aa(lp2996
I0
aI0
aI0
aI2
aI0
aI4
aI2
aI0
aI0
aI0
aI0
aI2
aI0
aI4
aI2
aI0
aa(lp2997
I0
aI2
aI0
aI2
aI2
aI0
aI2
aI0
aI0
aI2
aI0
aI2
aI2
aI0
aI2
aI0
aa(lp2998
I0
aI0
aI4
aI2
aI0
aI2
aI0
aI0
aI2
aI2
aI0
aI2
aI2
aI0
aI0
aI0
aa(lp2999
I0
aI0
aI0
aI0
aI0
aI4
aI0
aI0
aI0
aI0
aI4
aI0
aI0
aI4
aI0
aI4
aa(lp3000
I0
aI0
aI0
aI0
aI2
aI0
aI0
aI2
aI2
aI2
aI0
aI4
aI0
aI2
aI0
aI2
aa(lp3001
I0
aI0
aI4
aI0
aI0
aI2
aI2
aI0
aI2
aI2
aI0
aI0
aI2
aI0
aI2
aI0
aa(lp3002
I0
aI0
aI0
aI2
aI0
aI0
aI2
aI4
aI0
aI0
aI4
aI2
aI0
aI0
aI2
aI0
aa(lp3003
I0
aI2
aI0
aI0
aI0
aI0
aI0
aI2
aI2
aI0
aI0
aI0
aI2
aI2
aI4
aI2
aa(lp3004
I0
aI0
aI0
aI2
aI0
aI0
aI2
aI0
aI0
aI0
aI4
aI2
aI0
aI0
aI2
aI4
aasg2825
g1373
sg2826
g2416
sg2827
g1331
sg2828
g993
sg2829
I10
sba(iclusterfk.Probability
FullroundInverseStep
p3005
(dp3006
g2807
g1051
sg2481
g2482
sS'P'
g2488
sg2458
g2208
sg2463
(lp3007
(lp3008
I16
aI0
aI0
aI0
aI0
aI0
aI0
aI0
aI0
aI0
aI0
aI0
aI0
aI0
aI0
aI0
aa(lp3009
I0
aI2
aI4
aI0
aI2
aI2
aI2
aI0
aI2
aI0
aI0
aI0
aI0
aI0
aI2
aI0
aa(lp3010
I0
aI4
aI0
aI0
aI4
aI0
aI0
aI0
aI0
aI4
aI0
aI0
aI4
aI0
aI0
aI0
aa(lp3011
I0
aI0
aI0
aI0
aI2
aI0
aI4
aI2
aI2
aI2
aI0
aI0
aI0
aI2
aI0
aI2
aa(lp3012
I0
aI2
aI4
aI2
aI2
aI2
aI0
aI0
aI2
aI0
aI0
aI2
aI0
aI0
aI0
aI0
aa(lp3013
I0
aI2
aI0
aI0
aI2
aI0
aI0
aI4
aI0
aI2
aI4
aI0
aI2
aI0
aI0
aI0
aa(lp3014
I0
aI2
aI0
aI4
aI0
aI0
aI0
aI2
aI2
aI0
aI0
aI0
aI2
aI2
aI0
aI2
aa(lp3015
I0
aI0
aI0
aI2
aI0
aI4
aI2
aI0
aI0
aI0
aI0
aI2
aI0
aI4
aI2
aI0
aa(lp3016
I0
aI2
aI0
aI2
aI2
aI0
aI2
aI0
aI0
aI2
aI0
aI2
aI2
aI0
aI2
aI0
aa(lp3017
I0
aI0
aI4
aI2
aI0
aI2
aI0
aI0
aI2
aI2
aI0
aI2
aI2
aI0
aI0
aI0
aa(lp3018
I0
aI0
aI0
aI0
aI0
aI4
aI0
aI0
aI0
aI0
aI4
aI0
aI0
aI4
aI0
aI4
aa(lp3019
I0
aI0
aI0
aI0
aI2
aI0
aI0
aI2
aI2
aI2
aI0
aI4
aI0
aI2
aI0
aI2
aa(lp3020
I0
aI0
aI4
aI0
aI0
aI2
aI2
aI0
aI2
aI2
aI0
aI0
aI2
aI0
aI2
aI0
aa(lp3021
I0
aI0
aI0
aI2
aI0
aI0
aI2
aI4
aI0
aI0
aI4
aI2
aI0
aI0
aI2
aI0
aa(lp3022
I0
aI2
aI0
aI0
aI0
aI0
aI0
aI2
aI2
aI0
aI0
aI0
aI2
aI2
aI4
aI2
aa(lp3023
I0
aI0
aI0
aI2
aI0
aI0
aI2
aI0
aI0
aI0
aI4
aI2
aI0
aI0
aI2
aI4
aasg2825
g1331
sg2826
g2369
sg2827
g1289
sg2828
g1199
sg2829
I11
sbasb.