(iclusterfk.Mantis
MantisTrail
p1
(dp2
S'states'
p3
(dp4
S'S9'
p5
(iclusterfk.Mantis
MantisState
p6
(dp7
S'_MantisState__iterindex'
p8
I0
sS'isKeyrec'
p9
(lp10
I00
aI00
aI00
aI00
aI00
aI00
aI00
aI00
aI00
aI00
aI00
aI00
aI00
aI00
aI00
aI00
asS'statenumbers'
p11
(lp12
I0
aI0
aI0
aI0
aI0
aI0
aI0
aI0
aI0
aI0
aI0
aI0
aI0
aI0
aI0
aI0
asS'state'
p13
(lp14
(lp15
(lp16
I0
aa(lp17
I0
aa(lp18
I0
aa(lp19
I0
aaa(lp20
(lp21
I0
aa(lp22
I0
aa(lp23
I0
aa(lp24
I0
aaa(lp25
(lp26
I0
aa(lp27
I0
aa(lp28
I0
aa(lp29
I0
aaa(lp30
(lp31
I0
aa(lp32
I0
aa(lp33
I0
aa(lp34
I0
aaasS'stateprobs'
p35
(lp36
(lp37
F1
aF0
aF0
aF0
aF0
aF0
aF0
aF0
aF0
aF0
aF0
aF0
aF0
aF0
aF0
aF0
aa(lp38
F1
aF0
aF0
aF0
aF0
aF0
aF0
aF0
aF0
aF0
aF0
aF0
aF0
aF0
aF0
aF0
aa(lp39
F1
aF0
aF0
aF0
aF0
aF0
aF0
aF0
aF0
aF0
aF0
aF0
aF0
aF0
aF0
aF0
aa(lp40
F1
aF0
aF0
aF0
aF0
aF0
aF0
aF0
aF0
aF0
aF0
aF0
aF0
aF0
aF0
aF0
aa(lp41
F1
aF0
aF0
aF0
aF0
aF0
aF0
aF0
aF0
aF0
aF0
aF0
aF0
aF0
aF0
aF0
aa(lp42
F1
aF0
aF0
aF0
aF0
aF0
aF0
aF0
aF0
aF0
aF0
aF0
aF0
aF0
aF0
aF0
aa(lp43
F1
aF0
aF0
aF0
aF0
aF0
aF0
aF0
aF0
aF0
aF0
aF0
aF0
aF0
aF0
aF0
aa(lp44
F1
aF0
aF0
aF0
aF0
aF0
aF0
aF0
aF0
aF0
aF0
aF0
aF0
aF0
aF0
aF0
aa(lp45
F1
aF0
aF0
aF0
aF0
aF0
aF0
aF0
aF0
aF0
aF0
aF0
aF0
aF0
aF0
aF0
aa(lp46
F1
aF0
aF0
aF0
aF0
aF0
aF0
aF0
aF0
aF0
aF0
aF0
aF0
aF0
aF0
aF0
aa(lp47
F1
aF0
aF0
aF0
aF0
aF0
aF0
aF0
aF0
aF0
aF0
aF0
aF0
aF0
aF0
aF0
aa(lp48
F1
aF0
aF0
aF0
aF0
aF0
aF0
aF0
aF0
aF0
aF0
aF0
aF0
aF0
aF0
aF0
aa(lp49
F1
aF0
aF0
aF0
aF0
aF0
aF0
aF0
aF0
aF0
aF0
aF0
aF0
aF0
aF0
aF0
aa(lp50
F1
aF0
aF0
aF0
aF0
aF0
aF0
aF0
aF0
aF0
aF0
aF0
aF0
aF0
aF0
aF0
aa(lp51
F1
aF0
aF0
aF0
aF0
aF0
aF0
aF0
aF0
aF0
aF0
aF0
aF0
aF0
aF0
aF0
aa(lp52
F1
aF0
aF0
aF0
aF0
aF0
aF0
aF0
aF0
aF0
aF0
aF0
aF0
aF0
aF0
aF0
aasS'name'
p53
g5
sbsS'S8'
p54
(iclusterfk.Mantis
MantisState
p55
(dp56
g8
I0
sg9
(lp57
I00
aI00
aI00
aI00
aI00
aI00
aI00
aI00
aI00
aI00
aI00
aI00
aI00
aI00
aI00
aI00
asg11
(lp58
I0
aI0
aI0
aI0
aI0
aI0
aI0
aI0
aI0
aI0
aI0
aI0
aI0
aI0
aI0
aI0
asg13
(lp59
(lp60
(lp61
I0
aa(lp62
I10
aa(lp63
I0
aa(lp64
I0
aaa(lp65
(lp66
I0
aa(lp67
I0
aa(lp68
I0
aa(lp69
I0
aaa(lp70
(lp71
I0
aa(lp72
I0
aa(lp73
I0
aa(lp74
I0
aaa(lp75
(lp76
I0
aa(lp77
I10
aa(lp78
I0
aa(lp79
I0
aaasg35
(lp80
(lp81
F1
aF0
aF0
aF0
aF0
aF0
aF0
aF0
aF0
aF0
aF0
aF0
aF0
aF0
aF0
aF0
aa(lp82
F0
aF0
aF0
aF0
aF0
aF0
aF0
aF0
aF0
aF0
aF1
aF0
aF0
aF0
aF0
aF0
aa(lp83
F1
aF0
aF0
aF0
aF0
aF0
aF0
aF0
aF0
aF0
aF0
aF0
aF0
aF0
aF0
aF0
aa(lp84
F1
aF0
aF0
aF0
aF0
aF0
aF0
aF0
aF0
aF0
aF0
aF0
aF0
aF0
aF0
aF0
aa(lp85
F1
aF0
aF0
aF0
aF0
aF0
aF0
aF0
aF0
aF0
aF0
aF0
aF0
aF0
aF0
aF0
aa(lp86
F1
aF0
aF0
aF0
aF0
aF0
aF0
aF0
aF0
aF0
aF0
aF0
aF0
aF0
aF0
aF0
aa(lp87
F1
aF0
aF0
aF0
aF0
aF0
aF0
aF0
aF0
aF0
aF0
aF0
aF0
aF0
aF0
aF0
aa(lp88
F1
aF0
aF0
aF0
aF0
aF0
aF0
aF0
aF0
aF0
aF0
aF0
aF0
aF0
aF0
aF0
aa(lp89
F1
aF0
aF0
aF0
aF0
aF0
aF0
aF0
aF0
aF0
aF0
aF0
aF0
aF0
aF0
aF0
aa(lp90
F1
aF0
aF0
aF0
aF0
aF0
aF0
aF0
aF0
aF0
aF0
aF0
aF0
aF0
aF0
aF0
aa(lp91
F1
aF0
aF0
aF0
aF0
aF0
aF0
aF0
aF0
aF0
aF0
aF0
aF0
aF0
aF0
aF0
aa(lp92
F1
aF0
aF0
aF0
aF0
aF0
aF0
aF0
aF0
aF0
aF0
aF0
aF0
aF0
aF0
aF0
aa(lp93
F1
aF0
aF0
aF0
aF0
aF0
aF0
aF0
aF0
aF0
aF0
aF0
aF0
aF0
aF0
aF0
aa(lp94
F0
aF0
aF0
aF0
aF0
aF0
aF0
aF0
aF0
aF0
aF1
aF0
aF0
aF0
aF0
aF0
aa(lp95
F1
aF0
aF0
aF0
aF0
aF0
aF0
aF0
aF0
aF0
aF0
aF0
aF0
aF0
aF0
aF0
aa(lp96
F1
aF0
aF0
aF0
aF0
aF0
aF0
aF0
aF0
aF0
aF0
aF0
aF0
aF0
aF0
aF0
aasg53
g54
sbsS'S3'
p97
(iclusterfk.Mantis
MantisState
p98
(dp99
g8
I0
sg9
(lp100
I00
aI00
aI00
aI00
aI00
aI00
aI00
aI00
aI00
aI00
aI00
aI00
aI00
aI00
aI00
aI00
asg11
(lp101
I0
aI0
aI0
aI0
aI0
aI0
aI5
aI0
aI0
aI0
aI5
aI0
aI0
aI0
aI0
aI0
asg13
(lp102
(lp103
(lp104
I0
aa(lp105
I0
aa(lp106
I0
aa(lp107
I0
aaa(lp108
(lp109
I0
aa(lp110
I0
aa(lp111
I10
aI13
aI5
aI15
aa(lp112
I0
aaa(lp113
(lp114
I0
aa(lp115
I0
aa(lp116
I10
aI13
aI5
aI15
aa(lp117
I0
aaa(lp118
(lp119
I0
aa(lp120
I0
aa(lp121
I0
aa(lp122
I0
aaasg35
(lp123
(lp124
F1
aF0
aF0
aF0
aF0
aF0
aF0
aF0
aF0
aF0
aF0
aF0
aF0
aF0
aF0
aF0
aa(lp125
F1
aF0
aF0
aF0
aF0
aF0
aF0
aF0
aF0
aF0
aF0
aF0
aF0
aF0
aF0
aF0
aa(lp126
F1
aF0
aF0
aF0
aF0
aF0
aF0
aF0
aF0
aF0
aF0
aF0
aF0
aF0
aF0
aF0
aa(lp127
F1
aF0
aF0
aF0
aF0
aF0
aF0
aF0
aF0
aF0
aF0
aF0
aF0
aF0
aF0
aF0
aa(lp128
F1
aF0
aF0
aF0
aF0
aF0
aF0
aF0
aF0
aF0
aF0
aF0
aF0
aF0
aF0
aF0
aa(lp129
F1
aF0
aF0
aF0
aF0
aF0
aF0
aF0
aF0
aF0
aF0
aF0
aF0
aF0
aF0
aF0
aa(lp130
F0
aF0
aF0
aF0
aF0
aF0.15384615384615385
aF0
aF0
aF0
aF0
aF0.42307692307692302
aF0
aF0
aF0.15384615384615385
aF0
aF0.26923076923076922
aa(lp131
F1
aF0
aF0
aF0
aF0
aF0
aF0
aF0
aF0
aF0
aF0
aF0
aF0
aF0
aF0
aF0
aa(lp132
F1
aF0
aF0
aF0
aF0
aF0
aF0
aF0
aF0
aF0
aF0
aF0
aF0
aF0
aF0
aF0
aa(lp133
F1
aF0
aF0
aF0
aF0
aF0
aF0
aF0
aF0
aF0
aF0
aF0
aF0
aF0
aF0
aF0
aa(lp134
F0
aF0
aF0
aF0
aF0
aF0.15384615384615385
aF0
aF0
aF0
aF0
aF0.42307692307692302
aF0
aF0
aF0.15384615384615385
aF0
aF0.26923076923076922
aa(lp135
F1
aF0
aF0
aF0
aF0
aF0
aF0
aF0
aF0
aF0
aF0
aF0
aF0
aF0
aF0
aF0
aa(lp136
F1
aF0
aF0
aF0
aF0
aF0
aF0
aF0
aF0
aF0
aF0
aF0
aF0
aF0
aF0
aF0
aa(lp137
F1
aF0
aF0
aF0
aF0
aF0
aF0
aF0
aF0
aF0
aF0
aF0
aF0
aF0
aF0
aF0
aa(lp138
F1
aF0
aF0
aF0
aF0
aF0
aF0
aF0
aF0
aF0
aF0
aF0
aF0
aF0
aF0
aF0
aa(lp139
F1
aF0
aF0
aF0
aF0
aF0
aF0
aF0
aF0
aF0
aF0
aF0
aF0
aF0
aF0
aF0
aasg53
g97
sbsS'S2'
p140
(iclusterfk.Mantis
MantisState
p141
(dp142
g8
I0
sg9
(lp143
I00
aI00
aI00
aI00
aI00
aI00
aI00
aI00
aI00
aI00
aI00
aI00
aI00
aI00
aI00
aI00
asg11
(lp144
I0
aI0
aI4
aI0
aI0
aI0
aI4
aI0
aI0
aI0
aI0
aI0
aI3
aI0
aI0
aI0
asg13
(lp145
(lp146
(lp147
I0
aa(lp148
I0
aa(lp149
I10
aI13
aI5
aI15
aa(lp150
I10
aaa(lp151
(lp152
I0
aa(lp153
I0
aa(lp154
I10
aI13
aI5
aI15
aa(lp155
I0
aaa(lp156
(lp157
I0
aa(lp158
I0
aa(lp159
I0
aa(lp160
I0
aaa(lp161
(lp162
I10
aI5
aI13
aI15
aa(lp163
I0
aa(lp164
I0
aa(lp165
I0
aaasg35
(lp166
(lp167
F1
aF0
aF0
aF0
aF0
aF0
aF0
aF0
aF0
aF0
aF0
aF0
aF0
aF0
aF0
aF0
aa(lp168
F1
aF0
aF0
aF0
aF0
aF0
aF0
aF0
aF0
aF0
aF0
aF0
aF0
aF0
aF0
aF0
aa(lp169
F0
aF0
aF0
aF0
aF0
aF0.18181818181818182
aF0
aF0
aF0
aF0
aF0.36363636363636365
aF0
aF0
aF0.18181818181818182
aF0
aF0.27272727272727271
aa(lp170
F0
aF0
aF0
aF0
aF0
aF0
aF0
aF0
aF0
aF0
aF1
aF0
aF0
aF0
aF0
aF0
aa(lp171
F1
aF0
aF0
aF0
aF0
aF0
aF0
aF0
aF0
aF0
aF0
aF0
aF0
aF0
aF0
aF0
aa(lp172
F1
aF0
aF0
aF0
aF0
aF0
aF0
aF0
aF0
aF0
aF0
aF0
aF0
aF0
aF0
aF0
aa(lp173
F0
aF0
aF0
aF0
aF0
aF0.18181818181818182
aF0
aF0
aF0
aF0
aF0.36363636363636365
aF0
aF0
aF0.18181818181818182
aF0
aF0.27272727272727271
aa(lp174
F1
aF0
aF0
aF0
aF0
aF0
aF0
aF0
aF0
aF0
aF0
aF0
aF0
aF0
aF0
aF0
aa(lp175
F1
aF0
aF0
aF0
aF0
aF0
aF0
aF0
aF0
aF0
aF0
aF0
aF0
aF0
aF0
aF0
aa(lp176
F1
aF0
aF0
aF0
aF0
aF0
aF0
aF0
aF0
aF0
aF0
aF0
aF0
aF0
aF0
aF0
aa(lp177
F1
aF0
aF0
aF0
aF0
aF0
aF0
aF0
aF0
aF0
aF0
aF0
aF0
aF0
aF0
aF0
aa(lp178
F1
aF0
aF0
aF0
aF0
aF0
aF0
aF0
aF0
aF0
aF0
aF0
aF0
aF0
aF0
aF0
aa(lp179
F0
aF0
aF0
aF0
aF0
aF0.18181818181818182
aF0
aF0
aF0
aF0
aF0.36363636363636365
aF0
aF0
aF0.18181818181818182
aF0
aF0.27272727272727271
aa(lp180
F1
aF0
aF0
aF0
aF0
aF0
aF0
aF0
aF0
aF0
aF0
aF0
aF0
aF0
aF0
aF0
aa(lp181
F1
aF0
aF0
aF0
aF0
aF0
aF0
aF0
aF0
aF0
aF0
aF0
aF0
aF0
aF0
aF0
aa(lp182
F1
aF0
aF0
aF0
aF0
aF0
aF0
aF0
aF0
aF0
aF0
aF0
aF0
aF0
aF0
aF0
aasg53
g140
sbsS'S1'
p183
(iclusterfk.Mantis
MantisState
p184
(dp185
g8
I0
sg9
(lp186
I00
aI00
aI00
aI00
aI00
aI00
aI00
aI00
aI00
aI00
aI00
aI00
aI00
aI00
aI00
aI00
asg11
(lp187
I0
aI0
aI0
aI0
aI0
aI0
aI1
aI2
aI0
aI0
aI1
aI0
aI0
aI0
aI1
aI0
asg13
(lp188
(lp189
(lp190
I10
aa(lp191
I0
aa(lp192
I0
aa(lp193
I0
aaa(lp194
(lp195
I0
aa(lp196
I10
aa(lp197
I10
aI13
aI5
aI15
aa(lp198
I10
aI13
aI5
aI15
aaa(lp199
(lp200
I10
aa(lp201
I0
aa(lp202
I10
aI13
aI5
aI15
aa(lp203
I0
aaa(lp204
(lp205
I10
aa(lp206
I0
aa(lp207
I10
aI13
aI5
aI15
aa(lp208
I0
aaasg35
(lp209
(lp210
F0
aF0
aF0
aF0
aF0
aF0
aF0
aF0
aF0
aF0
aF1
aF0
aF0
aF0
aF0
aF0
aa(lp211
F1
aF0
aF0
aF0
aF0
aF0
aF0
aF0
aF0
aF0
aF0
aF0
aF0
aF0
aF0
aF0
aa(lp212
F1
aF0
aF0
aF0
aF0
aF0
aF0
aF0
aF0
aF0
aF0
aF0
aF0
aF0
aF0
aF0
aa(lp213
F1
aF0
aF0
aF0
aF0
aF0
aF0
aF0
aF0
aF0
aF0
aF0
aF0
aF0
aF0
aF0
aa(lp214
F1
aF0
aF0
aF0
aF0
aF0
aF0
aF0
aF0
aF0
aF0
aF0
aF0
aF0
aF0
aF0
aa(lp215
F0
aF0
aF0
aF0
aF0
aF0
aF0
aF0
aF0
aF0
aF1
aF0
aF0
aF0
aF0
aF0
aa(lp216
F0
aF0
aF0
aF0
aF0
aF0.125
aF0
aF0
aF0
aF0
aF0.5
aF0
aF0
aF0.125
aF0
aF0.25
aa(lp217
F0
aF0
aF0
aF0
aF0
aF0.013513513513513514
aF0
aF0
aF0
aF0
aF0.86486486486486491
aF0
aF0
aF0.013513513513513514
aF0
aF0.10810810810810811
aa(lp218
F0
aF0
aF0
aF0
aF0
aF0
aF0
aF0
aF0
aF0
aF1
aF0
aF0
aF0
aF0
aF0
aa(lp219
F1
aF0
aF0
aF0
aF0
aF0
aF0
aF0
aF0
aF0
aF0
aF0
aF0
aF0
aF0
aF0
aa(lp220
F0
aF0
aF0
aF0
aF0
aF0.125
aF0
aF0
aF0
aF0
aF0.5
aF0
aF0
aF0.125
aF0
aF0.25
aa(lp221
F1
aF0
aF0
aF0
aF0
aF0
aF0
aF0
aF0
aF0
aF0
aF0
aF0
aF0
aF0
aF0
aa(lp222
F0
aF0
aF0
aF0
aF0
aF0
aF0
aF0
aF0
aF0
aF1
aF0
aF0
aF0
aF0
aF0
aa(lp223
F1
aF0
aF0
aF0
aF0
aF0
aF0
aF0
aF0
aF0
aF0
aF0
aF0
aF0
aF0
aF0
aa(lp224
F0
aF0
aF0
aF0
aF0
aF0.125
aF0
aF0
aF0
aF0
aF0.5
aF0
aF0
aF0.125
aF0
aF0.25
aa(lp225
F1
aF0
aF0
aF0
aF0
aF0
aF0
aF0
aF0
aF0
aF0
aF0
aF0
aF0
aF0
aF0
aasg53
g183
sbsS'S0'
p226
(iclusterfk.Mantis
MantisState
p227
(dp228
g8
I0
sg9
(lp229
I00
aI00
aI00
aI00
aI00
aI00
aI00
aI00
aI00
aI00
aI00
aI00
aI00
aI00
aI00
aI00
asg11
(lp230
I0
aI0
aI0
aI0
aI0
aI0
aI0
aI0
aI0
aI0
aI0
aI0
aI0
aI0
aI0
aI0
asg13
(lp231
(lp232
(lp233
I0
aa(lp234
I0
aa(lp235
I10
aI5
aI13
aI15
aa(lp236
I0
aaa(lp237
(lp238
I10
aI13
aI5
aI15
aa(lp239
I0
aa(lp240
I10
aI5
aI13
aI15
aa(lp241
I0
aaa(lp242
(lp243
I10
aI13
aI5
aI15
aa(lp244
I0
aa(lp245
I0
aa(lp246
I10
aI13
aI5
aI15
aaa(lp247
(lp248
I0
aa(lp249
I10
aI15
aI5
aI13
aa(lp250
I0
aa(lp251
I0
aaasg35
(lp252
(lp253
F1
aF0
aF0
aF0
aF0
aF0
aF0
aF0
aF0
aF0
aF0
aF0
aF0
aF0
aF0
aF0
aa(lp254
F1
aF0
aF0
aF0
aF0
aF0
aF0
aF0
aF0
aF0
aF0
aF0
aF0
aF0
aF0
aF0
aa(lp255
F0
aF0
aF0
aF0
aF0
aF0.25
aF0
aF0
aF0
aF0
aF0.25
aF0
aF0
aF0.25
aF0
aF0.25
aa(lp256
F1
aF0
aF0
aF0
aF0
aF0
aF0
aF0
aF0
aF0
aF0
aF0
aF0
aF0
aF0
aF0
aa(lp257
F0
aF0
aF0
aF0
aF0
aF0.25
aF0
aF0
aF0
aF0
aF0.25
aF0
aF0
aF0.25
aF0
aF0.25
aa(lp258
F1
aF0
aF0
aF0
aF0
aF0
aF0
aF0
aF0
aF0
aF0
aF0
aF0
aF0
aF0
aF0
aa(lp259
F0
aF0
aF0
aF0
aF0
aF0.25
aF0
aF0
aF0
aF0
aF0.25
aF0
aF0
aF0.25
aF0
aF0.25
aa(lp260
F1
aF0
aF0
aF0
aF0
aF0
aF0
aF0
aF0
aF0
aF0
aF0
aF0
aF0
aF0
aF0
aa(lp261
F0
aF0
aF0
aF0
aF0
aF0.25
aF0
aF0
aF0
aF0
aF0.25
aF0
aF0
aF0.25
aF0
aF0.25
aa(lp262
F1
aF0
aF0
aF0
aF0
aF0
aF0
aF0
aF0
aF0
aF0
aF0
aF0
aF0
aF0
aF0
aa(lp263
F1
aF0
aF0
aF0
aF0
aF0
aF0
aF0
aF0
aF0
aF0
aF0
aF0
aF0
aF0
aF0
aa(lp264
F0
aF0
aF0
aF0
aF0
aF0.25
aF0
aF0
aF0
aF0
aF0.25
aF0
aF0
aF0.25
aF0
aF0.25
aa(lp265
F1
aF0
aF0
aF0
aF0
aF0
aF0
aF0
aF0
aF0
aF0
aF0
aF0
aF0
aF0
aF0
aa(lp266
F0
aF0
aF0
aF0
aF0
aF0.25
aF0
aF0
aF0
aF0
aF0.25
aF0
aF0
aF0.25
aF0
aF0.25
aa(lp267
F1
aF0
aF0
aF0
aF0
aF0
aF0
aF0
aF0
aF0
aF0
aF0
aF0
aF0
aF0
aF0
aa(lp268
F1
aF0
aF0
aF0
aF0
aF0
aF0
aF0
aF0
aF0
aF0
aF0
aF0
aF0
aF0
aF0
aasg53
g226
sbsS'S6'
p269
(iclusterfk.Mantis
MantisState
p270
(dp271
g8
I0
sg9
(lp272
I00
aI00
aI00
aI00
aI00
aI00
aI00
aI00
aI00
aI00
aI00
aI00
aI00
aI00
aI00
aI00
asg11
(lp273
I0
aI0
aI0
aI0
aI0
aI0
aI0
aI0
aI0
aI0
aI0
aI0
aI0
aI0
aI0
aI0
asg13
(lp274
(lp275
(lp276
I0
aa(lp277
I10
aa(lp278
I0
aa(lp279
I0
aaa(lp280
(lp281
I0
aa(lp282
I0
aa(lp283
I0
aa(lp284
I0
aaa(lp285
(lp286
I0
aa(lp287
I0
aa(lp288
I0
aa(lp289
I0
aaa(lp290
(lp291
I0
aa(lp292
I10
aa(lp293
I0
aa(lp294
I0
aaasg35
(lp295
(lp296
F1
aF0
aF0
aF0
aF0
aF0
aF0
aF0
aF0
aF0
aF0
aF0
aF0
aF0
aF0
aF0
aa(lp297
F0
aF0
aF0
aF0
aF0
aF0
aF0
aF0
aF0
aF0
aF1
aF0
aF0
aF0
aF0
aF0
aa(lp298
F1
aF0
aF0
aF0
aF0
aF0
aF0
aF0
aF0
aF0
aF0
aF0
aF0
aF0
aF0
aF0
aa(lp299
F1
aF0
aF0
aF0
aF0
aF0
aF0
aF0
aF0
aF0
aF0
aF0
aF0
aF0
aF0
aF0
aa(lp300
F1
aF0
aF0
aF0
aF0
aF0
aF0
aF0
aF0
aF0
aF0
aF0
aF0
aF0
aF0
aF0
aa(lp301
F1
aF0
aF0
aF0
aF0
aF0
aF0
aF0
aF0
aF0
aF0
aF0
aF0
aF0
aF0
aF0
aa(lp302
F1
aF0
aF0
aF0
aF0
aF0
aF0
aF0
aF0
aF0
aF0
aF0
aF0
aF0
aF0
aF0
aa(lp303
F1
aF0
aF0
aF0
aF0
aF0
aF0
aF0
aF0
aF0
aF0
aF0
aF0
aF0
aF0
aF0
aa(lp304
F1
aF0
aF0
aF0
aF0
aF0
aF0
aF0
aF0
aF0
aF0
aF0
aF0
aF0
aF0
aF0
aa(lp305
F1
aF0
aF0
aF0
aF0
aF0
aF0
aF0
aF0
aF0
aF0
aF0
aF0
aF0
aF0
aF0
aa(lp306
F1
aF0
aF0
aF0
aF0
aF0
aF0
aF0
aF0
aF0
aF0
aF0
aF0
aF0
aF0
aF0
aa(lp307
F1
aF0
aF0
aF0
aF0
aF0
aF0
aF0
aF0
aF0
aF0
aF0
aF0
aF0
aF0
aF0
aa(lp308
F1
aF0
aF0
aF0
aF0
aF0
aF0
aF0
aF0
aF0
aF0
aF0
aF0
aF0
aF0
aF0
aa(lp309
F0
aF0
aF0
aF0
aF0
aF0
aF0
aF0
aF0
aF0
aF1
aF0
aF0
aF0
aF0
aF0
aa(lp310
F1
aF0
aF0
aF0
aF0
aF0
aF0
aF0
aF0
aF0
aF0
aF0
aF0
aF0
aF0
aF0
aa(lp311
F1
aF0
aF0
aF0
aF0
aF0
aF0
aF0
aF0
aF0
aF0
aF0
aF0
aF0
aF0
aF0
aasg53
g269
sbsS'S5'
p312
(iclusterfk.Mantis
MantisState
p313
(dp314
g8
I0
sg9
(lp315
I00
aI00
aI00
aI00
aI00
aI00
aI00
aI00
aI00
aI00
aI00
aI00
aI00
aI00
aI00
aI00
asg11
(lp316
I0
aI0
aI0
aI0
aI0
aI0
aI0
aI0
aI0
aI0
aI0
aI0
aI0
aI0
aI0
aI0
asg13
(lp317
(lp318
(lp319
I0
aa(lp320
I0
aa(lp321
I0
aa(lp322
I0
aaa(lp323
(lp324
I0
aa(lp325
I0
aa(lp326
I0
aa(lp327
I0
aaa(lp328
(lp329
I0
aa(lp330
I0
aa(lp331
I0
aa(lp332
I0
aaa(lp333
(lp334
I0
aa(lp335
I0
aa(lp336
I0
aa(lp337
I0
aaasg35
(lp338
(lp339
F1
aF0
aF0
aF0
aF0
aF0
aF0
aF0
aF0
aF0
aF0
aF0
aF0
aF0
aF0
aF0
aa(lp340
F1
aF0
aF0
aF0
aF0
aF0
aF0
aF0
aF0
aF0
aF0
aF0
aF0
aF0
aF0
aF0
aa(lp341
F1
aF0
aF0
aF0
aF0
aF0
aF0
aF0
aF0
aF0
aF0
aF0
aF0
aF0
aF0
aF0
aa(lp342
F1
aF0
aF0
aF0
aF0
aF0
aF0
aF0
aF0
aF0
aF0
aF0
aF0
aF0
aF0
aF0
aa(lp343
F1
aF0
aF0
aF0
aF0
aF0
aF0
aF0
aF0
aF0
aF0
aF0
aF0
aF0
aF0
aF0
aa(lp344
F1
aF0
aF0
aF0
aF0
aF0
aF0
aF0
aF0
aF0
aF0
aF0
aF0
aF0
aF0
aF0
aa(lp345
F1
aF0
aF0
aF0
aF0
aF0
aF0
aF0
aF0
aF0
aF0
aF0
aF0
aF0
aF0
aF0
aa(lp346
F1
aF0
aF0
aF0
aF0
aF0
aF0
aF0
aF0
aF0
aF0
aF0
aF0
aF0
aF0
aF0
aa(lp347
F1
aF0
aF0
aF0
aF0
aF0
aF0
aF0
aF0
aF0
aF0
aF0
aF0
aF0
aF0
aF0
aa(lp348
F1
aF0
aF0
aF0
aF0
aF0
aF0
aF0
aF0
aF0
aF0
aF0
aF0
aF0
aF0
aF0
aa(lp349
F1
aF0
aF0
aF0
aF0
aF0
aF0
aF0
aF0
aF0
aF0
aF0
aF0
aF0
aF0
aF0
aa(lp350
F1
aF0
aF0
aF0
aF0
aF0
aF0
aF0
aF0
aF0
aF0
aF0
aF0
aF0
aF0
aF0
aa(lp351
F1
aF0
aF0
aF0
aF0
aF0
aF0
aF0
aF0
aF0
aF0
aF0
aF0
aF0
aF0
aF0
aa(lp352
F1
aF0
aF0
aF0
aF0
aF0
aF0
aF0
aF0
aF0
aF0
aF0
aF0
aF0
aF0
aF0
aa(lp353
F1
aF0
aF0
aF0
aF0
aF0
aF0
aF0
aF0
aF0
aF0
aF0
aF0
aF0
aF0
aF0
aa(lp354
F1
aF0
aF0
aF0
aF0
aF0
aF0
aF0
aF0
aF0
aF0
aF0
aF0
aF0
aF0
aF0
aasg53
g312
sbsS'S4'
p355
(iclusterfk.Mantis
MantisState
p356
(dp357
g8
I0
sg9
(lp358
I00
aI00
aI00
aI00
aI00
aI00
aI00
aI00
aI00
aI00
aI00
aI00
aI00
aI00
aI00
aI00
asg11
(lp359
I0
aI0
aI0
aI0
aI0
aI0
aI0
aI0
aI0
aI0
aI0
aI0
aI0
aI0
aI0
aI0
asg13
(lp360
(lp361
(lp362
I10
aa(lp363
I0
aa(lp364
I0
aa(lp365
I0
aaa(lp366
(lp367
I10
aa(lp368
I0
aa(lp369
I0
aa(lp370
I0
aaa(lp371
(lp372
I0
aa(lp373
I0
aa(lp374
I0
aa(lp375
I0
aaa(lp376
(lp377
I0
aa(lp378
I0
aa(lp379
I0
aa(lp380
I0
aaasg35
(lp381
(lp382
F0
aF0
aF0
aF0
aF0
aF0
aF0
aF0
aF0
aF0
aF1
aF0
aF0
aF0
aF0
aF0
aa(lp383
F1
aF0
aF0
aF0
aF0
aF0
aF0
aF0
aF0
aF0
aF0
aF0
aF0
aF0
aF0
aF0
aa(lp384
F1
aF0
aF0
aF0
aF0
aF0
aF0
aF0
aF0
aF0
aF0
aF0
aF0
aF0
aF0
aF0
aa(lp385
F1
aF0
aF0
aF0
aF0
aF0
aF0
aF0
aF0
aF0
aF0
aF0
aF0
aF0
aF0
aF0
aa(lp386
F0
aF0
aF0
aF0
aF0
aF0
aF0
aF0
aF0
aF0
aF1
aF0
aF0
aF0
aF0
aF0
aa(lp387
F1
aF0
aF0
aF0
aF0
aF0
aF0
aF0
aF0
aF0
aF0
aF0
aF0
aF0
aF0
aF0
aa(lp388
F1
aF0
aF0
aF0
aF0
aF0
aF0
aF0
aF0
aF0
aF0
aF0
aF0
aF0
aF0
aF0
aa(lp389
F1
aF0
aF0
aF0
aF0
aF0
aF0
aF0
aF0
aF0
aF0
aF0
aF0
aF0
aF0
aF0
aa(lp390
F1
aF0
aF0
aF0
aF0
aF0
aF0
aF0
aF0
aF0
aF0
aF0
aF0
aF0
aF0
aF0
aa(lp391
F1
aF0
aF0
aF0
aF0
aF0
aF0
aF0
aF0
aF0
aF0
aF0
aF0
aF0
aF0
aF0
aa(lp392
F1
aF0
aF0
aF0
aF0
aF0
aF0
aF0
aF0
aF0
aF0
aF0
aF0
aF0
aF0
aF0
aa(lp393
F1
aF0
aF0
aF0
aF0
aF0
aF0
aF0
aF0
aF0
aF0
aF0
aF0
aF0
aF0
aF0
aa(lp394
F1
aF0
aF0
aF0
aF0
aF0
aF0
aF0
aF0
aF0
aF0
aF0
aF0
aF0
aF0
aF0
aa(lp395
F1
aF0
aF0
aF0
aF0
aF0
aF0
aF0
aF0
aF0
aF0
aF0
aF0
aF0
aF0
aF0
aa(lp396
F1
aF0
aF0
aF0
aF0
aF0
aF0
aF0
aF0
aF0
aF0
aF0
aF0
aF0
aF0
aF0
aa(lp397
F1
aF0
aF0
aF0
aF0
aF0
aF0
aF0
aF0
aF0
aF0
aF0
aF0
aF0
aF0
aF0
aasg53
g355
sbsS'M5'
p398
(iclusterfk.Mantis
MantisState
p399
(dp400
g8
I0
sg9
(lp401
I00
aI00
aI00
aI00
aI00
aI00
aI00
aI00
aI00
aI00
aI00
aI00
aI00
aI00
aI00
aI00
asg11
(lp402
I0
aI0
aI0
aI0
aI0
aI0
aI0
aI0
aI0
aI0
aI0
aI0
aI0
aI0
aI0
aI0
asg13
(lp403
(lp404
(lp405
I0
aa(lp406
I0
aa(lp407
I0
aa(lp408
I0
aaa(lp409
(lp410
I0
aa(lp411
I0
aa(lp412
I0
aa(lp413
I0
aaa(lp414
(lp415
I0
aa(lp416
I0
aa(lp417
I0
aa(lp418
I0
aaa(lp419
(lp420
I0
aa(lp421
I0
aa(lp422
I0
aa(lp423
I0
aaasg35
(lp424
(lp425
F1
aF0
aF0
aF0
aF0
aF0
aF0
aF0
aF0
aF0
aF0
aF0
aF0
aF0
aF0
aF0
aa(lp426
F1
aF0
aF0
aF0
aF0
aF0
aF0
aF0
aF0
aF0
aF0
aF0
aF0
aF0
aF0
aF0
aa(lp427
F1
aF0
aF0
aF0
aF0
aF0
aF0
aF0
aF0
aF0
aF0
aF0
aF0
aF0
aF0
aF0
aa(lp428
F1
aF0
aF0
aF0
aF0
aF0
aF0
aF0
aF0
aF0
aF0
aF0
aF0
aF0
aF0
aF0
aa(lp429
F1
aF0
aF0
aF0
aF0
aF0
aF0
aF0
aF0
aF0
aF0
aF0
aF0
aF0
aF0
aF0
aa(lp430
F1
aF0
aF0
aF0
aF0
aF0
aF0
aF0
aF0
aF0
aF0
aF0
aF0
aF0
aF0
aF0
aa(lp431
F1
aF0
aF0
aF0
aF0
aF0
aF0
aF0
aF0
aF0
aF0
aF0
aF0
aF0
aF0
aF0
aa(lp432
F1
aF0
aF0
aF0
aF0
aF0
aF0
aF0
aF0
aF0
aF0
aF0
aF0
aF0
aF0
aF0
aa(lp433
F1
aF0
aF0
aF0
aF0
aF0
aF0
aF0
aF0
aF0
aF0
aF0
aF0
aF0
aF0
aF0
aa(lp434
F1
aF0
aF0
aF0
aF0
aF0
aF0
aF0
aF0
aF0
aF0
aF0
aF0
aF0
aF0
aF0
aa(lp435
F1
aF0
aF0
aF0
aF0
aF0
aF0
aF0
aF0
aF0
aF0
aF0
aF0
aF0
aF0
aF0
aa(lp436
F1
aF0
aF0
aF0
aF0
aF0
aF0
aF0
aF0
aF0
aF0
aF0
aF0
aF0
aF0
aF0
aa(lp437
F1
aF0
aF0
aF0
aF0
aF0
aF0
aF0
aF0
aF0
aF0
aF0
aF0
aF0
aF0
aF0
aa(lp438
F1
aF0
aF0
aF0
aF0
aF0
aF0
aF0
aF0
aF0
aF0
aF0
aF0
aF0
aF0
aF0
aa(lp439
F1
aF0
aF0
aF0
aF0
aF0
aF0
aF0
aF0
aF0
aF0
aF0
aF0
aF0
aF0
aF0
aa(lp440
F1
aF0
aF0
aF0
aF0
aF0
aF0
aF0
aF0
aF0
aF0
aF0
aF0
aF0
aF0
aF0
aasg53
g398
sbsS'M4'
p441
(iclusterfk.Mantis
MantisState
p442
(dp443
g8
I0
sg9
(lp444
I00
aI00
aI00
aI00
aI00
aI00
aI00
aI00
aI00
aI00
aI00
aI00
aI00
aI00
aI00
aI00
asg11
(lp445
I0
aI0
aI0
aI0
aI0
aI0
aI0
aI0
aI0
aI0
aI0
aI0
aI0
aI0
aI0
aI0
asg13
(lp446
(lp447
(lp448
I10
aa(lp449
I0
aa(lp450
I0
aa(lp451
I0
aaa(lp452
g448
a(lp453
I0
aa(lp454
I0
aa(lp455
I0
aaa(lp456
(lp457
I0
aa(lp458
I0
aa(lp459
I0
aa(lp460
I0
aaa(lp461
(lp462
I0
aa(lp463
I0
aa(lp464
I0
aa(lp465
I0
aaasg35
(lp466
(lp467
F0
aF0
aF0
aF0
aF0
aF0
aF0
aF0
aF0
aF0
aF1
aF0
aF0
aF0
aF0
aF0
aa(lp468
F1
aF0
aF0
aF0
aF0
aF0
aF0
aF0
aF0
aF0
aF0
aF0
aF0
aF0
aF0
aF0
aa(lp469
F1
aF0
aF0
aF0
aF0
aF0
aF0
aF0
aF0
aF0
aF0
aF0
aF0
aF0
aF0
aF0
aa(lp470
F1
aF0
aF0
aF0
aF0
aF0
aF0
aF0
aF0
aF0
aF0
aF0
aF0
aF0
aF0
aF0
aa(lp471
F0
aF0
aF0
aF0
aF0
aF0
aF0
aF0
aF0
aF0
aF1
aF0
aF0
aF0
aF0
aF0
aa(lp472
F1
aF0
aF0
aF0
aF0
aF0
aF0
aF0
aF0
aF0
aF0
aF0
aF0
aF0
aF0
aF0
aa(lp473
F1
aF0
aF0
aF0
aF0
aF0
aF0
aF0
aF0
aF0
aF0
aF0
aF0
aF0
aF0
aF0
aa(lp474
F1
aF0
aF0
aF0
aF0
aF0
aF0
aF0
aF0
aF0
aF0
aF0
aF0
aF0
aF0
aF0
aa(lp475
F1
aF0
aF0
aF0
aF0
aF0
aF0
aF0
aF0
aF0
aF0
aF0
aF0
aF0
aF0
aF0
aa(lp476
F1
aF0
aF0
aF0
aF0
aF0
aF0
aF0
aF0
aF0
aF0
aF0
aF0
aF0
aF0
aF0
aa(lp477
F1
aF0
aF0
aF0
aF0
aF0
aF0
aF0
aF0
aF0
aF0
aF0
aF0
aF0
aF0
aF0
aa(lp478
F1
aF0
aF0
aF0
aF0
aF0
aF0
aF0
aF0
aF0
aF0
aF0
aF0
aF0
aF0
aF0
aa(lp479
F1
aF0
aF0
aF0
aF0
aF0
aF0
aF0
aF0
aF0
aF0
aF0
aF0
aF0
aF0
aF0
aa(lp480
F1
aF0
aF0
aF0
aF0
aF0
aF0
aF0
aF0
aF0
aF0
aF0
aF0
aF0
aF0
aF0
aa(lp481
F1
aF0
aF0
aF0
aF0
aF0
aF0
aF0
aF0
aF0
aF0
aF0
aF0
aF0
aF0
aF0
aa(lp482
F1
aF0
aF0
aF0
aF0
aF0
aF0
aF0
aF0
aF0
aF0
aF0
aF0
aF0
aF0
aF0
aasg53
g441
sbsS'M6'
p483
(iclusterfk.Mantis
MantisState
p484
(dp485
g8
I0
sg9
(lp486
I00
aI00
aI00
aI00
aI00
aI00
aI00
aI00
aI00
aI00
aI00
aI00
aI00
aI00
aI00
aI00
asg11
(lp487
I0
aI0
aI0
aI0
aI0
aI0
aI0
aI0
aI0
aI0
aI0
aI0
aI0
aI0
aI0
aI0
asg13
(lp488
(lp489
(lp490
I0
aa(lp491
I10
aa(lp492
I0
aa(lp493
I0
aaa(lp494
(lp495
I0
aa(lp496
I0
aa(lp497
I0
aa(lp498
I0
aaa(lp499
(lp500
I0
aa(lp501
I0
aa(lp502
I0
aa(lp503
I0
aaa(lp504
(lp505
I0
aag491
a(lp506
I0
aa(lp507
I0
aaasg35
(lp508
(lp509
F1
aF0
aF0
aF0
aF0
aF0
aF0
aF0
aF0
aF0
aF0
aF0
aF0
aF0
aF0
aF0
aa(lp510
F0
aF0
aF0
aF0
aF0
aF0
aF0
aF0
aF0
aF0
aF1
aF0
aF0
aF0
aF0
aF0
aa(lp511
F1
aF0
aF0
aF0
aF0
aF0
aF0
aF0
aF0
aF0
aF0
aF0
aF0
aF0
aF0
aF0
aa(lp512
F1
aF0
aF0
aF0
aF0
aF0
aF0
aF0
aF0
aF0
aF0
aF0
aF0
aF0
aF0
aF0
aa(lp513
F1
aF0
aF0
aF0
aF0
aF0
aF0
aF0
aF0
aF0
aF0
aF0
aF0
aF0
aF0
aF0
aa(lp514
F1
aF0
aF0
aF0
aF0
aF0
aF0
aF0
aF0
aF0
aF0
aF0
aF0
aF0
aF0
aF0
aa(lp515
F1
aF0
aF0
aF0
aF0
aF0
aF0
aF0
aF0
aF0
aF0
aF0
aF0
aF0
aF0
aF0
aa(lp516
F1
aF0
aF0
aF0
aF0
aF0
aF0
aF0
aF0
aF0
aF0
aF0
aF0
aF0
aF0
aF0
aa(lp517
F1
aF0
aF0
aF0
aF0
aF0
aF0
aF0
aF0
aF0
aF0
aF0
aF0
aF0
aF0
aF0
aa(lp518
F1
aF0
aF0
aF0
aF0
aF0
aF0
aF0
aF0
aF0
aF0
aF0
aF0
aF0
aF0
aF0
aa(lp519
F1
aF0
aF0
aF0
aF0
aF0
aF0
aF0
aF0
aF0
aF0
aF0
aF0
aF0
aF0
aF0
aa(lp520
F1
aF0
aF0
aF0
aF0
aF0
aF0
aF0
aF0
aF0
aF0
aF0
aF0
aF0
aF0
aF0
aa(lp521
F1
aF0
aF0
aF0
aF0
aF0
aF0
aF0
aF0
aF0
aF0
aF0
aF0
aF0
aF0
aF0
aa(lp522
F0
aF0
aF0
aF0
aF0
aF0
aF0
aF0
aF0
aF0
aF1
aF0
aF0
aF0
aF0
aF0
aa(lp523
F1
aF0
aF0
aF0
aF0
aF0
aF0
aF0
aF0
aF0
aF0
aF0
aF0
aF0
aF0
aF0
aa(lp524
F1
aF0
aF0
aF0
aF0
aF0
aF0
aF0
aF0
aF0
aF0
aF0
aF0
aF0
aF0
aF0
aasg53
g483
sbsS'M1'
p525
(iclusterfk.Mantis
MantisState
p526
(dp527
g8
I0
sg9
(lp528
I00
aI00
aI00
aI00
aI00
aI00
aI00
aI00
aI00
aI00
aI00
aI00
aI00
aI00
aI00
aI00
asg11
(lp529
I0
aI0
aI1
aI2
aI0
aI0
aI0
aI0
aI0
aI0
aI0
aI2
aI0
aI0
aI0
aI2
asg13
(lp530
(lp531
(lp532
I0
aa(lp533
I10
aa(lp534
I10
aI5
aI13
aI15
aa(lp535
I10
aI5
aI13
aI15
aaa(lp536
(lp537
I10
aa(lp538
I0
aa(lp539
I0
aa(lp540
I0
aaa(lp541
(lp542
I0
aag533
a(lp543
I0
aag535
aa(lp544
(lp545
I0
aag533
a(lp546
I0
aag535
aasg35
(lp547
(lp548
F1
aF0
aF0
aF0
aF0
aF0
aF0
aF0
aF0
aF0
aF0
aF0
aF0
aF0
aF0
aF0
aa(lp549
F0
aF0
aF0
aF0
aF0
aF0
aF0
aF0
aF0
aF0
aF1
aF0
aF0
aF0
aF0
aF0
aa(lp550
F0
aF0
aF0
aF0
aF0
aF0.125
aF0
aF0
aF0
aF0
aF0.5
aF0
aF0
aF0.125
aF0
aF0.25
aa(lp551
F0
aF0
aF0
aF0
aF0
aF0.125
aF0
aF0
aF0
aF0
aF0.5
aF0
aF0
aF0.125
aF0
aF0.25
aa(lp552
F0
aF0
aF0
aF0
aF0
aF0
aF0
aF0
aF0
aF0
aF1
aF0
aF0
aF0
aF0
aF0
aa(lp553
F1
aF0
aF0
aF0
aF0
aF0
aF0
aF0
aF0
aF0
aF0
aF0
aF0
aF0
aF0
aF0
aa(lp554
F1
aF0
aF0
aF0
aF0
aF0
aF0
aF0
aF0
aF0
aF0
aF0
aF0
aF0
aF0
aF0
aa(lp555
F1
aF0
aF0
aF0
aF0
aF0
aF0
aF0
aF0
aF0
aF0
aF0
aF0
aF0
aF0
aF0
aa(lp556
F1
aF0
aF0
aF0
aF0
aF0
aF0
aF0
aF0
aF0
aF0
aF0
aF0
aF0
aF0
aF0
aa(lp557
F0
aF0
aF0
aF0
aF0
aF0
aF0
aF0
aF0
aF0
aF1
aF0
aF0
aF0
aF0
aF0
aa(lp558
F1
aF0
aF0
aF0
aF0
aF0
aF0
aF0
aF0
aF0
aF0
aF0
aF0
aF0
aF0
aF0
aa(lp559
F0
aF0
aF0
aF0
aF0
aF0.125
aF0
aF0
aF0
aF0
aF0.5
aF0
aF0
aF0.125
aF0
aF0.25
aa(lp560
F1
aF0
aF0
aF0
aF0
aF0
aF0
aF0
aF0
aF0
aF0
aF0
aF0
aF0
aF0
aF0
aa(lp561
F0
aF0
aF0
aF0
aF0
aF0
aF0
aF0
aF0
aF0
aF1
aF0
aF0
aF0
aF0
aF0
aa(lp562
F1
aF0
aF0
aF0
aF0
aF0
aF0
aF0
aF0
aF0
aF0
aF0
aF0
aF0
aF0
aF0
aa(lp563
F0
aF0
aF0
aF0
aF0
aF0.125
aF0
aF0
aF0
aF0
aF0.5
aF0
aF0
aF0.125
aF0
aF0.25
aasg53
g525
sbsS'M3'
p564
(iclusterfk.Mantis
MantisState
p565
(dp566
g8
I0
sg9
(lp567
I00
aI00
aI00
aI00
aI00
aI00
aI00
aI00
aI00
aI00
aI00
aI00
aI00
aI00
aI00
aI00
asg11
(lp568
I0
aI0
aI0
aI0
aI0
aI0
aI5
aI0
aI0
aI0
aI5
aI0
aI0
aI0
aI0
aI0
asg13
(lp569
(lp570
(lp571
I0
aa(lp572
I0
aa(lp573
I0
aa(lp574
I0
aaa(lp575
(lp576
I0
aa(lp577
I0
aa(lp578
I10
aI5
aI13
aI15
aa(lp579
I0
aaa(lp580
(lp581
I0
aa(lp582
I0
aag578
a(lp583
I0
aaa(lp584
(lp585
I0
aa(lp586
I0
aa(lp587
I0
aa(lp588
I0
aaasg35
(lp589
(lp590
F1
aF0
aF0
aF0
aF0
aF0
aF0
aF0
aF0
aF0
aF0
aF0
aF0
aF0
aF0
aF0
aa(lp591
F1
aF0
aF0
aF0
aF0
aF0
aF0
aF0
aF0
aF0
aF0
aF0
aF0
aF0
aF0
aF0
aa(lp592
F1
aF0
aF0
aF0
aF0
aF0
aF0
aF0
aF0
aF0
aF0
aF0
aF0
aF0
aF0
aF0
aa(lp593
F1
aF0
aF0
aF0
aF0
aF0
aF0
aF0
aF0
aF0
aF0
aF0
aF0
aF0
aF0
aF0
aa(lp594
F1
aF0
aF0
aF0
aF0
aF0
aF0
aF0
aF0
aF0
aF0
aF0
aF0
aF0
aF0
aF0
aa(lp595
F1
aF0
aF0
aF0
aF0
aF0
aF0
aF0
aF0
aF0
aF0
aF0
aF0
aF0
aF0
aF0
aa(lp596
F0
aF0
aF0
aF0
aF0
aF0.15384615384615385
aF0
aF0
aF0
aF0
aF0.42307692307692302
aF0
aF0
aF0.15384615384615385
aF0
aF0.26923076923076922
aa(lp597
F1
aF0
aF0
aF0
aF0
aF0
aF0
aF0
aF0
aF0
aF0
aF0
aF0
aF0
aF0
aF0
aa(lp598
F1
aF0
aF0
aF0
aF0
aF0
aF0
aF0
aF0
aF0
aF0
aF0
aF0
aF0
aF0
aF0
aa(lp599
F1
aF0
aF0
aF0
aF0
aF0
aF0
aF0
aF0
aF0
aF0
aF0
aF0
aF0
aF0
aF0
aa(lp600
F0
aF0
aF0
aF0
aF0
aF0.25
aF0
aF0
aF0
aF0
aF0.25
aF0
aF0
aF0.25
aF0
aF0.25
aa(lp601
F1
aF0
aF0
aF0
aF0
aF0
aF0
aF0
aF0
aF0
aF0
aF0
aF0
aF0
aF0
aF0
aa(lp602
F1
aF0
aF0
aF0
aF0
aF0
aF0
aF0
aF0
aF0
aF0
aF0
aF0
aF0
aF0
aF0
aa(lp603
F1
aF0
aF0
aF0
aF0
aF0
aF0
aF0
aF0
aF0
aF0
aF0
aF0
aF0
aF0
aF0
aa(lp604
F1
aF0
aF0
aF0
aF0
aF0
aF0
aF0
aF0
aF0
aF0
aF0
aF0
aF0
aF0
aF0
aa(lp605
F1
aF0
aF0
aF0
aF0
aF0
aF0
aF0
aF0
aF0
aF0
aF0
aF0
aF0
aF0
aF0
aasg53
g564
sbsS'M2'
p606
(iclusterfk.Mantis
MantisState
p607
(dp608
g8
I0
sg9
(lp609
I00
aI00
aI00
aI00
aI00
aI00
aI00
aI00
aI00
aI00
aI00
aI00
aI00
aI00
aI00
aI00
asg11
(lp610
I3
aI0
aI4
aI0
aI3
aI0
aI4
aI0
aI3
aI0
aI0
aI0
aI0
aI0
aI0
aI0
asg13
(lp611
(lp612
(lp613
I10
aI13
aI5
aI15
aa(lp614
I0
aa(lp615
I10
aI5
aI13
aI15
aa(lp616
I0
aaa(lp617
g613
a(lp618
I0
aag615
a(lp619
I10
aaa(lp620
g613
a(lp621
I0
aa(lp622
I0
aag619
aa(lp623
(lp624
I0
aa(lp625
I0
aa(lp626
I0
aag619
aasg35
(lp627
(lp628
F0
aF0
aF0
aF0
aF0
aF0.25
aF0
aF0
aF0
aF0
aF0.25
aF0
aF0
aF0.25
aF0
aF0.25
aa(lp629
F1
aF0
aF0
aF0
aF0
aF0
aF0
aF0
aF0
aF0
aF0
aF0
aF0
aF0
aF0
aF0
aa(lp630
F0
aF0
aF0
aF0
aF0
aF0.18181818181818182
aF0
aF0
aF0
aF0
aF0.36363636363636365
aF0
aF0
aF0.18181818181818182
aF0
aF0.27272727272727271
aa(lp631
F1
aF0
aF0
aF0
aF0
aF0
aF0
aF0
aF0
aF0
aF0
aF0
aF0
aF0
aF0
aF0
aa(lp632
F0
aF0
aF0
aF0
aF0
aF0.18181818181818182
aF0
aF0
aF0
aF0
aF0.36363636363636365
aF0
aF0
aF0.18181818181818182
aF0
aF0.27272727272727271
aa(lp633
F1
aF0
aF0
aF0
aF0
aF0
aF0
aF0
aF0
aF0
aF0
aF0
aF0
aF0
aF0
aF0
aa(lp634
F0
aF0
aF0
aF0
aF0
aF0.25
aF0
aF0
aF0
aF0
aF0.25
aF0
aF0
aF0.25
aF0
aF0.25
aa(lp635
F0
aF0
aF0
aF0
aF0
aF0
aF0
aF0
aF0
aF0
aF1
aF0
aF0
aF0
aF0
aF0
aa(lp636
F0
aF0
aF0
aF0
aF0
aF0.25
aF0
aF0
aF0
aF0
aF0.25
aF0
aF0
aF0.25
aF0
aF0.25
aa(lp637
F1
aF0
aF0
aF0
aF0
aF0
aF0
aF0
aF0
aF0
aF0
aF0
aF0
aF0
aF0
aF0
aa(lp638
F1
aF0
aF0
aF0
aF0
aF0
aF0
aF0
aF0
aF0
aF0
aF0
aF0
aF0
aF0
aF0
aa(lp639
F0
aF0
aF0
aF0
aF0
aF0
aF0
aF0
aF0
aF0
aF1
aF0
aF0
aF0
aF0
aF0
aa(lp640
F1
aF0
aF0
aF0
aF0
aF0
aF0
aF0
aF0
aF0
aF0
aF0
aF0
aF0
aF0
aF0
aa(lp641
F1
aF0
aF0
aF0
aF0
aF0
aF0
aF0
aF0
aF0
aF0
aF0
aF0
aF0
aF0
aF0
aa(lp642
F1
aF0
aF0
aF0
aF0
aF0
aF0
aF0
aF0
aF0
aF0
aF0
aF0
aF0
aF0
aF0
aa(lp643
F0
aF0
aF0
aF0
aF0
aF0
aF0
aF0
aF0
aF0
aF1
aF0
aF0
aF0
aF0
aF0
aasg53
g606
sbsS'M9'
p644
(iclusterfk.Mantis
MantisState
p645
(dp646
g8
I0
sg9
(lp647
I00
aI00
aI00
aI00
aI00
aI00
aI00
aI00
aI00
aI00
aI00
aI00
aI00
aI00
aI00
aI00
asg11
(lp648
I0
aI0
aI0
aI0
aI0
aI0
aI0
aI0
aI0
aI0
aI0
aI0
aI0
aI0
aI0
aI0
asg13
(lp649
(lp650
(lp651
I0
aa(lp652
I0
aa(lp653
I0
aa(lp654
I0
aaa(lp655
(lp656
I0
aa(lp657
I0
aa(lp658
I0
aa(lp659
I0
aaa(lp660
(lp661
I0
aa(lp662
I0
aa(lp663
I0
aa(lp664
I0
aaa(lp665
(lp666
I0
aa(lp667
I0
aa(lp668
I0
aa(lp669
I0
aaasg35
(lp670
(lp671
F1
aF0
aF0
aF0
aF0
aF0
aF0
aF0
aF0
aF0
aF0
aF0
aF0
aF0
aF0
aF0
aa(lp672
F1
aF0
aF0
aF0
aF0
aF0
aF0
aF0
aF0
aF0
aF0
aF0
aF0
aF0
aF0
aF0
aa(lp673
F1
aF0
aF0
aF0
aF0
aF0
aF0
aF0
aF0
aF0
aF0
aF0
aF0
aF0
aF0
aF0
aa(lp674
F1
aF0
aF0
aF0
aF0
aF0
aF0
aF0
aF0
aF0
aF0
aF0
aF0
aF0
aF0
aF0
aa(lp675
F1
aF0
aF0
aF0
aF0
aF0
aF0
aF0
aF0
aF0
aF0
aF0
aF0
aF0
aF0
aF0
aa(lp676
F1
aF0
aF0
aF0
aF0
aF0
aF0
aF0
aF0
aF0
aF0
aF0
aF0
aF0
aF0
aF0
aa(lp677
F1
aF0
aF0
aF0
aF0
aF0
aF0
aF0
aF0
aF0
aF0
aF0
aF0
aF0
aF0
aF0
aa(lp678
F1
aF0
aF0
aF0
aF0
aF0
aF0
aF0
aF0
aF0
aF0
aF0
aF0
aF0
aF0
aF0
aa(lp679
F1
aF0
aF0
aF0
aF0
aF0
aF0
aF0
aF0
aF0
aF0
aF0
aF0
aF0
aF0
aF0
aa(lp680
F1
aF0
aF0
aF0
aF0
aF0
aF0
aF0
aF0
aF0
aF0
aF0
aF0
aF0
aF0
aF0
aa(lp681
F1
aF0
aF0
aF0
aF0
aF0
aF0
aF0
aF0
aF0
aF0
aF0
aF0
aF0
aF0
aF0
aa(lp682
F1
aF0
aF0
aF0
aF0
aF0
aF0
aF0
aF0
aF0
aF0
aF0
aF0
aF0
aF0
aF0
aa(lp683
F1
aF0
aF0
aF0
aF0
aF0
aF0
aF0
aF0
aF0
aF0
aF0
aF0
aF0
aF0
aF0
aa(lp684
F1
aF0
aF0
aF0
aF0
aF0
aF0
aF0
aF0
aF0
aF0
aF0
aF0
aF0
aF0
aF0
aa(lp685
F1
aF0
aF0
aF0
aF0
aF0
aF0
aF0
aF0
aF0
aF0
aF0
aF0
aF0
aF0
aF0
aa(lp686
F1
aF0
aF0
aF0
aF0
aF0
aF0
aF0
aF0
aF0
aF0
aF0
aF0
aF0
aF0
aF0
aasg53
g644
sbsS'M8'
p687
(iclusterfk.Mantis
MantisState
p688
(dp689
g8
I0
sg9
(lp690
I00
aI00
aI00
aI00
aI00
aI00
aI00
aI00
aI00
aI00
aI00
aI00
aI00
aI00
aI00
aI00
asg11
(lp691
I0
aI0
aI0
aI0
aI0
aI0
aI0
aI0
aI0
aI0
aI0
aI0
aI0
aI0
aI0
aI0
asg13
(lp692
(lp693
(lp694
I0
aa(lp695
I10
aa(lp696
I0
aa(lp697
I0
aaa(lp698
(lp699
I0
aa(lp700
I0
aa(lp701
I0
aa(lp702
I0
aaa(lp703
(lp704
I0
aa(lp705
I0
aa(lp706
I0
aa(lp707
I0
aaa(lp708
(lp709
I0
aag695
a(lp710
I0
aa(lp711
I0
aaasg35
(lp712
(lp713
F1
aF0
aF0
aF0
aF0
aF0
aF0
aF0
aF0
aF0
aF0
aF0
aF0
aF0
aF0
aF0
aa(lp714
F0
aF0
aF0
aF0
aF0
aF0
aF0
aF0
aF0
aF0
aF1
aF0
aF0
aF0
aF0
aF0
aa(lp715
F1
aF0
aF0
aF0
aF0
aF0
aF0
aF0
aF0
aF0
aF0
aF0
aF0
aF0
aF0
aF0
aa(lp716
F1
aF0
aF0
aF0
aF0
aF0
aF0
aF0
aF0
aF0
aF0
aF0
aF0
aF0
aF0
aF0
aa(lp717
F1
aF0
aF0
aF0
aF0
aF0
aF0
aF0
aF0
aF0
aF0
aF0
aF0
aF0
aF0
aF0
aa(lp718
F1
aF0
aF0
aF0
aF0
aF0
aF0
aF0
aF0
aF0
aF0
aF0
aF0
aF0
aF0
aF0
aa(lp719
F1
aF0
aF0
aF0
aF0
aF0
aF0
aF0
aF0
aF0
aF0
aF0
aF0
aF0
aF0
aF0
aa(lp720
F1
aF0
aF0
aF0
aF0
aF0
aF0
aF0
aF0
aF0
aF0
aF0
aF0
aF0
aF0
aF0
aa(lp721
F1
aF0
aF0
aF0
aF0
aF0
aF0
aF0
aF0
aF0
aF0
aF0
aF0
aF0
aF0
aF0
aa(lp722
F1
aF0
aF0
aF0
aF0
aF0
aF0
aF0
aF0
aF0
aF0
aF0
aF0
aF0
aF0
aF0
aa(lp723
F1
aF0
aF0
aF0
aF0
aF0
aF0
aF0
aF0
aF0
aF0
aF0
aF0
aF0
aF0
aF0
aa(lp724
F1
aF0
aF0
aF0
aF0
aF0
aF0
aF0
aF0
aF0
aF0
aF0
aF0
aF0
aF0
aF0
aa(lp725
F1
aF0
aF0
aF0
aF0
aF0
aF0
aF0
aF0
aF0
aF0
aF0
aF0
aF0
aF0
aF0
aa(lp726
F0
aF0
aF0
aF0
aF0
aF0
aF0
aF0
aF0
aF0
aF1
aF0
aF0
aF0
aF0
aF0
aa(lp727
F1
aF0
aF0
aF0
aF0
aF0
aF0
aF0
aF0
aF0
aF0
aF0
aF0
aF0
aF0
aF0
aa(lp728
F1
aF0
aF0
aF0
aF0
aF0
aF0
aF0
aF0
aF0
aF0
aF0
aF0
aF0
aF0
aF0
aasg53
g687
sbsS'P10'
p729
(iclusterfk.Mantis
MantisState
p730
(dp731
g8
I0
sg9
(lp732
I00
aI00
aI00
aI00
aI00
aI00
aI00
aI00
aI00
aI00
aI00
aI00
aI00
aI00
aI00
aI00
asg11
(lp733
I0
aI0
aI0
aI0
aI0
aI0
aI0
aI0
aI0
aI0
aI0
aI0
aI0
aI0
aI0
aI0
asg13
(lp734
(lp735
(lp736
I10
aa(lp737
I0
aa(lp738
I0
aa(lp739
I0
aaa(lp740
(lp741
I0
aa(lp742
I0
aa(lp743
I0
aa(lp744
I0
aaa(lp745
(lp746
I0
aa(lp747
I0
aa(lp748
I10
aa(lp749
I0
aaa(lp750
(lp751
I0
aa(lp752
I0
aa(lp753
I0
aa(lp754
I0
aaasg35
(lp755
(lp756
F0
aF0
aF0
aF0
aF0
aF0
aF0
aF0
aF0
aF0
aF1
aF0
aF0
aF0
aF0
aF0
aa(lp757
F1
aF0
aF0
aF0
aF0
aF0
aF0
aF0
aF0
aF0
aF0
aF0
aF0
aF0
aF0
aF0
aa(lp758
F1
aF0
aF0
aF0
aF0
aF0
aF0
aF0
aF0
aF0
aF0
aF0
aF0
aF0
aF0
aF0
aa(lp759
F1
aF0
aF0
aF0
aF0
aF0
aF0
aF0
aF0
aF0
aF0
aF0
aF0
aF0
aF0
aF0
aa(lp760
F1
aF0
aF0
aF0
aF0
aF0
aF0
aF0
aF0
aF0
aF0
aF0
aF0
aF0
aF0
aF0
aa(lp761
F1
aF0
aF0
aF0
aF0
aF0
aF0
aF0
aF0
aF0
aF0
aF0
aF0
aF0
aF0
aF0
aa(lp762
F1
aF0
aF0
aF0
aF0
aF0
aF0
aF0
aF0
aF0
aF0
aF0
aF0
aF0
aF0
aF0
aa(lp763
F1
aF0
aF0
aF0
aF0
aF0
aF0
aF0
aF0
aF0
aF0
aF0
aF0
aF0
aF0
aF0
aa(lp764
F1
aF0
aF0
aF0
aF0
aF0
aF0
aF0
aF0
aF0
aF0
aF0
aF0
aF0
aF0
aF0
aa(lp765
F1
aF0
aF0
aF0
aF0
aF0
aF0
aF0
aF0
aF0
aF0
aF0
aF0
aF0
aF0
aF0
aa(lp766
F0
aF0
aF0
aF0
aF0
aF0
aF0
aF0
aF0
aF0
aF1
aF0
aF0
aF0
aF0
aF0
aa(lp767
F1
aF0
aF0
aF0
aF0
aF0
aF0
aF0
aF0
aF0
aF0
aF0
aF0
aF0
aF0
aF0
aa(lp768
F1
aF0
aF0
aF0
aF0
aF0
aF0
aF0
aF0
aF0
aF0
aF0
aF0
aF0
aF0
aF0
aa(lp769
F1
aF0
aF0
aF0
aF0
aF0
aF0
aF0
aF0
aF0
aF0
aF0
aF0
aF0
aF0
aF0
aa(lp770
F1
aF0
aF0
aF0
aF0
aF0
aF0
aF0
aF0
aF0
aF0
aF0
aF0
aF0
aF0
aF0
aa(lp771
F1
aF0
aF0
aF0
aF0
aF0
aF0
aF0
aF0
aF0
aF0
aF0
aF0
aF0
aF0
aF0
aasg53
g729
sbsS'A11'
p772
(iclusterfk.Mantis
MantisState
p773
(dp774
g8
I0
sg9
(lp775
I00
aI00
aI00
aI00
aI00
aI00
aI00
aI00
aI00
aI00
aI00
aI00
aI00
aI00
aI00
aI00
asg11
(lp776
I0
aI0
aI0
aI6
aI0
aI0
aI0
aI0
aI0
aI0
aI0
aI0
aI6
aI0
aI0
aI0
asg13
(lp777
(lp778
(lp779
I0
aa(lp780
I0
aa(lp781
I10
aa(lp782
I10
aI5
aI13
aI15
aaa(lp783
(lp784
I0
aa(lp785
I0
aa(lp786
I10
aa(lp787
I0
aaa(lp788
(lp789
I0
aa(lp790
I0
aa(lp791
I0
aa(lp792
I0
aaa(lp793
(lp794
I10
aI5
aI13
aI15
aa(lp795
I0
aa(lp796
I0
aa(lp797
I0
aaasg35
(lp798
(lp799
F1
aF0
aF0
aF0
aF0
aF0
aF0
aF0
aF0
aF0
aF0
aF0
aF0
aF0
aF0
aF0
aa(lp800
F1
aF0
aF0
aF0
aF0
aF0
aF0
aF0
aF0
aF0
aF0
aF0
aF0
aF0
aF0
aF0
aa(lp801
F0
aF0
aF0
aF0
aF0
aF0
aF0
aF0
aF0
aF0
aF1
aF0
aF0
aF0
aF0
aF0
aa(lp802
F0
aF0
aF0
aF0
aF0
aF0.25
aF0
aF0
aF0
aF0
aF0.25
aF0
aF0
aF0.25
aF0
aF0.25
aa(lp803
F1
aF0
aF0
aF0
aF0
aF0
aF0
aF0
aF0
aF0
aF0
aF0
aF0
aF0
aF0
aF0
aa(lp804
F1
aF0
aF0
aF0
aF0
aF0
aF0
aF0
aF0
aF0
aF0
aF0
aF0
aF0
aF0
aF0
aa(lp805
F0
aF0
aF0
aF0
aF0
aF0
aF0
aF0
aF0
aF0
aF1
aF0
aF0
aF0
aF0
aF0
aa(lp806
F1
aF0
aF0
aF0
aF0
aF0
aF0
aF0
aF0
aF0
aF0
aF0
aF0
aF0
aF0
aF0
aa(lp807
F1
aF0
aF0
aF0
aF0
aF0
aF0
aF0
aF0
aF0
aF0
aF0
aF0
aF0
aF0
aF0
aa(lp808
F1
aF0
aF0
aF0
aF0
aF0
aF0
aF0
aF0
aF0
aF0
aF0
aF0
aF0
aF0
aF0
aa(lp809
F1
aF0
aF0
aF0
aF0
aF0
aF0
aF0
aF0
aF0
aF0
aF0
aF0
aF0
aF0
aF0
aa(lp810
F1
aF0
aF0
aF0
aF0
aF0
aF0
aF0
aF0
aF0
aF0
aF0
aF0
aF0
aF0
aF0
aa(lp811
F0
aF0
aF0
aF0
aF0
aF0.25
aF0
aF0
aF0
aF0
aF0.25
aF0
aF0
aF0.25
aF0
aF0.25
aa(lp812
F1
aF0
aF0
aF0
aF0
aF0
aF0
aF0
aF0
aF0
aF0
aF0
aF0
aF0
aF0
aF0
aa(lp813
F1
aF0
aF0
aF0
aF0
aF0
aF0
aF0
aF0
aF0
aF0
aF0
aF0
aF0
aF0
aF0
aa(lp814
F1
aF0
aF0
aF0
aF0
aF0
aF0
aF0
aF0
aF0
aF0
aF0
aF0
aF0
aF0
aF0
aasg53
g772
sbsS'A10'
p815
(iclusterfk.Mantis
MantisState
p816
(dp817
g8
I0
sg9
(lp818
I00
aI00
aI00
aI00
aI00
aI00
aI00
aI00
aI00
aI00
aI00
aI00
aI00
aI00
aI00
aI00
asg11
(lp819
I0
aI0
aI0
aI0
aI0
aI0
aI0
aI0
aI0
aI0
aI0
aI0
aI0
aI0
aI0
aI0
asg13
(lp820
(lp821
(lp822
I0
aa(lp823
I0
aa(lp824
I0
aa(lp825
I0
aaa(lp826
(lp827
I0
aa(lp828
I0
aa(lp829
I10
aa(lp830
I0
aaa(lp831
(lp832
I0
aa(lp833
I0
aa(lp834
I10
aa(lp835
I0
aaa(lp836
(lp837
I0
aa(lp838
I0
aa(lp839
I0
aa(lp840
I0
aaasg35
(lp841
(lp842
F1
aF0
aF0
aF0
aF0
aF0
aF0
aF0
aF0
aF0
aF0
aF0
aF0
aF0
aF0
aF0
aa(lp843
F1
aF0
aF0
aF0
aF0
aF0
aF0
aF0
aF0
aF0
aF0
aF0
aF0
aF0
aF0
aF0
aa(lp844
F1
aF0
aF0
aF0
aF0
aF0
aF0
aF0
aF0
aF0
aF0
aF0
aF0
aF0
aF0
aF0
aa(lp845
F1
aF0
aF0
aF0
aF0
aF0
aF0
aF0
aF0
aF0
aF0
aF0
aF0
aF0
aF0
aF0
aa(lp846
F1
aF0
aF0
aF0
aF0
aF0
aF0
aF0
aF0
aF0
aF0
aF0
aF0
aF0
aF0
aF0
aa(lp847
F1
aF0
aF0
aF0
aF0
aF0
aF0
aF0
aF0
aF0
aF0
aF0
aF0
aF0
aF0
aF0
aa(lp848
F0
aF0
aF0
aF0
aF0
aF0
aF0
aF0
aF0
aF0
aF1
aF0
aF0
aF0
aF0
aF0
aa(lp849
F1
aF0
aF0
aF0
aF0
aF0
aF0
aF0
aF0
aF0
aF0
aF0
aF0
aF0
aF0
aF0
aa(lp850
F1
aF0
aF0
aF0
aF0
aF0
aF0
aF0
aF0
aF0
aF0
aF0
aF0
aF0
aF0
aF0
aa(lp851
F1
aF0
aF0
aF0
aF0
aF0
aF0
aF0
aF0
aF0
aF0
aF0
aF0
aF0
aF0
aF0
aa(lp852
F0
aF0
aF0
aF0
aF0
aF0
aF0
aF0
aF0
aF0
aF1
aF0
aF0
aF0
aF0
aF0
aa(lp853
F1
aF0
aF0
aF0
aF0
aF0
aF0
aF0
aF0
aF0
aF0
aF0
aF0
aF0
aF0
aF0
aa(lp854
F1
aF0
aF0
aF0
aF0
aF0
aF0
aF0
aF0
aF0
aF0
aF0
aF0
aF0
aF0
aF0
aa(lp855
F1
aF0
aF0
aF0
aF0
aF0
aF0
aF0
aF0
aF0
aF0
aF0
aF0
aF0
aF0
aF0
aa(lp856
F1
aF0
aF0
aF0
aF0
aF0
aF0
aF0
aF0
aF0
aF0
aF0
aF0
aF0
aF0
aF0
aa(lp857
F1
aF0
aF0
aF0
aF0
aF0
aF0
aF0
aF0
aF0
aF0
aF0
aF0
aF0
aF0
aF0
aasg53
g815
sbsS'A13'
p858
(iclusterfk.Mantis
MantisState
p859
(dp860
g8
I0
sg9
(lp861
I00
aI00
aI00
aI00
aI00
aI00
aI00
aI00
aI00
aI00
aI00
aI00
aI00
aI00
aI00
aI00
asg11
(lp862
I0
aI0
aI12
aI0
aI10
aI0
aI11
aI0
aI12
aI0
aI9
aI10
aI0
aI12
aI10
aI0
asg13
(lp863
(lp864
(lp865
I0
aa(lp866
I0
aa(lp867
I10
aI5
aI13
aI15
aa(lp868
I0
aaa(lp869
(lp870
I1
aI3
aI4
aI5
aI6
aI7
aI9
aI10
aI11
aI12
aI13
aI14
aI15
aa(lp871
I0
aa(lp872
I10
aI5
aI13
aI15
aa(lp873
I0
aaa(lp874
(lp875
I10
aI5
aI13
aI15
aa(lp876
I0
aa(lp877
I0
aI15
aI5
aI7
aa(lp878
I1
aI3
aI4
aI5
aI6
aI7
aI9
aI10
aI11
aI12
aI13
aI14
aI15
aaa(lp879
(lp880
I0
aa(lp881
I10
aI5
aI13
aI15
aa(lp882
I0
aI1
aI3
aI4
aI5
aI6
aI7
aI9
aI11
aI12
aI13
aI14
aI15
aa(lp883
I0
aaasg35
(lp884
(lp885
F1
aF0
aF0
aF0
aF0
aF0
aF0
aF0
aF0
aF0
aF0
aF0
aF0
aF0
aF0
aF0
aa(lp886
F1
aF0
aF0
aF0
aF0
aF0
aF0
aF0
aF0
aF0
aF0
aF0
aF0
aF0
aF0
aF0
aa(lp887
F0
aF0
aF0
aF0
aF0
aF0.25
aF0
aF0
aF0
aF0
aF0.25
aF0
aF0
aF0.25
aF0
aF0.25
aa(lp888
F1
aF0
aF0
aF0
aF0
aF0
aF0
aF0
aF0
aF0
aF0
aF0
aF0
aF0
aF0
aF0
aa(lp889
F0
aF0.015625
aF0
aF0.046875
aF0.015625
aF0.125
aF0.046875
aF0.0625
aF0
aF0.015625
aF0.25
aF0.046875
aF0.015625
aF0.125
aF0.046875
aF0.1875
aa(lp890
F1
aF0
aF0
aF0
aF0
aF0
aF0
aF0
aF0
aF0
aF0
aF0
aF0
aF0
aF0
aF0
aa(lp891
F0
aF0
aF0
aF0
aF0
aF0.076923076923076927
aF0
aF0
aF0
aF0
aF0.61538461538461542
aF0
aF0
aF0.076923076923076927
aF0
aF0.23076923076923073
aa(lp892
F1
aF0
aF0
aF0
aF0
aF0
aF0
aF0
aF0
aF0
aF0
aF0
aF0
aF0
aF0
aF0
aa(lp893
F0
aF0
aF0
aF0
aF0
aF0.25
aF0
aF0
aF0
aF0
aF0.25
aF0
aF0
aF0.25
aF0
aF0.25
aa(lp894
F1
aF0
aF0
aF0
aF0
aF0
aF0
aF0
aF0
aF0
aF0
aF0
aF0
aF0
aF0
aF0
aa(lp895
F0.61538461538461542
aF0
aF0
aF0
aF0
aF0.23076923076923073
aF0
aF0.076923076923076927
aF0
aF0
aF0
aF0
aF0
aF0
aF0
aF0.076923076923076927
aa(lp896
F0
aF0.015625
aF0
aF0.046875
aF0.015625
aF0.125
aF0.046875
aF0.0625
aF0
aF0.015625
aF0.25
aF0.046875
aF0.015625
aF0.125
aF0.046875
aF0.1875
aa(lp897
F1
aF0
aF0
aF0
aF0
aF0
aF0
aF0
aF0
aF0
aF0
aF0
aF0
aF0
aF0
aF0
aa(lp898
F0
aF0
aF0
aF0
aF0
aF0.25
aF0
aF0
aF0
aF0
aF0.25
aF0
aF0
aF0.25
aF0
aF0.25
aa(lp899
F0.25
aF0.046875
aF0
aF0.015625
aF0.046875
aF0.1875
aF0.015625
aF0.125
aF0
aF0.046875
aF0
aF0.015625
aF0.046875
aF0.0625
aF0.015625
aF0.125
aa(lp900
F1
aF0
aF0
aF0
aF0
aF0
aF0
aF0
aF0
aF0
aF0
aF0
aF0
aF0
aF0
aF0
aasg53
g858
sbsS'P11'
p901
(iclusterfk.Mantis
MantisState
p902
(dp903
g8
I0
sg9
(lp904
I00
aI00
aI00
aI00
aI00
aI00
aI00
aI00
aI00
aI00
aI00
aI00
aI00
aI00
aI00
aI00
asg11
(lp905
I0
aI0
aI0
aI6
aI0
aI0
aI0
aI0
aI0
aI0
aI0
aI0
aI6
aI0
aI0
aI0
asg13
(lp906
(lp907
(lp908
I0
aa(lp909
I0
aa(lp910
I0
aa(lp911
I10
aI13
aI5
aI15
aaa(lp912
(lp913
I0
aa(lp914
I0
aa(lp915
I0
aa(lp916
I0
aaa(lp917
(lp918
I0
aa(lp919
I0
aa(lp920
I0
aa(lp921
I0
aaa(lp922
(lp923
I10
aI13
aI5
aI15
aa(lp924
I0
aa(lp925
I0
aa(lp926
I0
aaasg35
(lp927
(lp928
F1
aF0
aF0
aF0
aF0
aF0
aF0
aF0
aF0
aF0
aF0
aF0
aF0
aF0
aF0
aF0
aa(lp929
F1
aF0
aF0
aF0
aF0
aF0
aF0
aF0
aF0
aF0
aF0
aF0
aF0
aF0
aF0
aF0
aa(lp930
F1
aF0
aF0
aF0
aF0
aF0
aF0
aF0
aF0
aF0
aF0
aF0
aF0
aF0
aF0
aF0
aa(lp931
F0
aF0
aF0
aF0
aF0
aF0.25
aF0
aF0
aF0
aF0
aF0.25
aF0
aF0
aF0.25
aF0
aF0.25
aa(lp932
F1
aF0
aF0
aF0
aF0
aF0
aF0
aF0
aF0
aF0
aF0
aF0
aF0
aF0
aF0
aF0
aa(lp933
F1
aF0
aF0
aF0
aF0
aF0
aF0
aF0
aF0
aF0
aF0
aF0
aF0
aF0
aF0
aF0
aa(lp934
F1
aF0
aF0
aF0
aF0
aF0
aF0
aF0
aF0
aF0
aF0
aF0
aF0
aF0
aF0
aF0
aa(lp935
F1
aF0
aF0
aF0
aF0
aF0
aF0
aF0
aF0
aF0
aF0
aF0
aF0
aF0
aF0
aF0
aa(lp936
F1
aF0
aF0
aF0
aF0
aF0
aF0
aF0
aF0
aF0
aF0
aF0
aF0
aF0
aF0
aF0
aa(lp937
F1
aF0
aF0
aF0
aF0
aF0
aF0
aF0
aF0
aF0
aF0
aF0
aF0
aF0
aF0
aF0
aa(lp938
F1
aF0
aF0
aF0
aF0
aF0
aF0
aF0
aF0
aF0
aF0
aF0
aF0
aF0
aF0
aF0
aa(lp939
F1
aF0
aF0
aF0
aF0
aF0
aF0
aF0
aF0
aF0
aF0
aF0
aF0
aF0
aF0
aF0
aa(lp940
F0
aF0
aF0
aF0
aF0
aF0.25
aF0
aF0
aF0
aF0
aF0.25
aF0
aF0
aF0.25
aF0
aF0.25
aa(lp941
F1
aF0
aF0
aF0
aF0
aF0
aF0
aF0
aF0
aF0
aF0
aF0
aF0
aF0
aF0
aF0
aa(lp942
F1
aF0
aF0
aF0
aF0
aF0
aF0
aF0
aF0
aF0
aF0
aF0
aF0
aF0
aF0
aF0
aa(lp943
F1
aF0
aF0
aF0
aF0
aF0
aF0
aF0
aF0
aF0
aF0
aF0
aF0
aF0
aF0
aF0
aasg53
g901
sbsS'S13'
p944
(iclusterfk.Mantis
MantisState
p945
(dp946
g8
I0
sg9
(lp947
I00
aI00
aI00
aI00
aI00
aI00
aI00
aI00
aI00
aI00
aI00
aI00
aI00
aI00
aI00
aI00
asg11
(lp948
I9
aI0
aI0
aI0
aI0
aI10
aI11
aI12
aI9
aI0
aI11
aI0
aI9
aI0
aI11
aI0
asg13
(lp949
(lp950
(lp951
I10
aI5
aI13
aI15
aa(lp952
I0
aa(lp953
I0
aa(lp954
I0
aaa(lp955
(lp956
I0
aa(lp957
I1
aI3
aI4
aI5
aI6
aI7
aI9
aI10
aI11
aI12
aI13
aI14
aI15
aa(lp958
I10
aI13
aI5
aI15
aa(lp959
I10
aI13
aI5
aI15
aaa(lp960
(lp961
I10
aI13
aI5
aI15
aa(lp962
I0
aa(lp963
I10
aI13
aI5
aI15
aa(lp964
I0
aaa(lp965
(lp966
I10
aI5
aI13
aI15
aa(lp967
I0
aa(lp968
I10
aI13
aI5
aI15
aa(lp969
I0
aaasg35
(lp970
(lp971
F0
aF0
aF0
aF0
aF0
aF0.18181818181818182
aF0
aF0
aF0
aF0
aF0.36363636363636365
aF0
aF0
aF0.18181818181818182
aF0
aF0.27272727272727271
aa(lp972
F1
aF0
aF0
aF0
aF0
aF0
aF0
aF0
aF0
aF0
aF0
aF0
aF0
aF0
aF0
aF0
aa(lp973
F1
aF0
aF0
aF0
aF0
aF0
aF0
aF0
aF0
aF0
aF0
aF0
aF0
aF0
aF0
aF0
aa(lp974
F1
aF0
aF0
aF0
aF0
aF0
aF0
aF0
aF0
aF0
aF0
aF0
aF0
aF0
aF0
aF0
aa(lp975
F1
aF0
aF0
aF0
aF0
aF0
aF0
aF0
aF0
aF0
aF0
aF0
aF0
aF0
aF0
aF0
aa(lp976
F0
aF0.015625
aF0
aF0.046875
aF0.015625
aF0.125
aF0.046875
aF0.0625
aF0
aF0.015625
aF0.25
aF0.046875
aF0.015625
aF0.125
aF0.046875
aF0.1875
aa(lp977
F0
aF0
aF0
aF0
aF0
aF0.125
aF0
aF0
aF0
aF0
aF0.5
aF0
aF0
aF0.125
aF0
aF0.25
aa(lp978
F0
aF0
aF0
aF0
aF0
aF0.25
aF0
aF0
aF0
aF0
aF0.25
aF0
aF0
aF0.25
aF0
aF0.25
aa(lp979
F0
aF0
aF0
aF0
aF0
aF0.25
aF0
aF0
aF0
aF0
aF0.25
aF0
aF0
aF0.25
aF0
aF0.25
aa(lp980
F1
aF0
aF0
aF0
aF0
aF0
aF0
aF0
aF0
aF0
aF0
aF0
aF0
aF0
aF0
aF0
aa(lp981
F0
aF0
aF0
aF0
aF0
aF0.18181818181818182
aF0
aF0
aF0
aF0
aF0.36363636363636365
aF0
aF0
aF0.18181818181818182
aF0
aF0.27272727272727271
aa(lp982
F1
aF0
aF0
aF0
aF0
aF0
aF0
aF0
aF0
aF0
aF0
aF0
aF0
aF0
aF0
aF0
aa(lp983
F0
aF0
aF0
aF0
aF0
aF0.125
aF0
aF0
aF0
aF0
aF0.5
aF0
aF0
aF0.125
aF0
aF0.25
aa(lp984
F1
aF0
aF0
aF0
aF0
aF0
aF0
aF0
aF0
aF0
aF0
aF0
aF0
aF0
aF0
aF0
aa(lp985
F0
aF0
aF0
aF0
aF0
aF0.25
aF0
aF0
aF0
aF0
aF0.25
aF0
aF0
aF0.25
aF0
aF0.25
aa(lp986
F1
aF0
aF0
aF0
aF0
aF0
aF0
aF0
aF0
aF0
aF0
aF0
aF0
aF0
aF0
aF0
aasg53
g944
sbsS'S12'
p987
(iclusterfk.Mantis
MantisState
p988
(dp989
g8
I0
sg9
(lp990
I00
aI00
aI00
aI00
aI00
aI00
aI00
aI00
aI00
aI00
aI00
aI00
aI00
aI00
aI00
aI00
asg11
(lp991
I0
aI0
aI8
aI0
aI0
aI0
aI8
aI0
aI0
aI0
aI0
aI0
aI7
aI0
aI0
aI0
asg13
(lp992
(lp993
(lp994
I0
aa(lp995
I0
aa(lp996
I10
aI13
aI5
aI15
aa(lp997
I10
aaa(lp998
(lp999
I0
aa(lp1000
I0
aa(lp1001
I10
aI13
aI5
aI15
aa(lp1002
I0
aaa(lp1003
(lp1004
I0
aa(lp1005
I0
aa(lp1006
I0
aa(lp1007
I0
aaa(lp1008
(lp1009
I10
aI5
aI13
aI15
aa(lp1010
I0
aa(lp1011
I0
aa(lp1012
I0
aaasg35
(lp1013
(lp1014
F1
aF0
aF0
aF0
aF0
aF0
aF0
aF0
aF0
aF0
aF0
aF0
aF0
aF0
aF0
aF0
aa(lp1015
F1
aF0
aF0
aF0
aF0
aF0
aF0
aF0
aF0
aF0
aF0
aF0
aF0
aF0
aF0
aF0
aa(lp1016
F0
aF0
aF0
aF0
aF0
aF0.25
aF0
aF0
aF0
aF0
aF0.25
aF0
aF0
aF0.25
aF0
aF0.25
aa(lp1017
F0
aF0
aF0
aF0
aF0
aF0
aF0
aF0
aF0
aF0
aF1
aF0
aF0
aF0
aF0
aF0
aa(lp1018
F1
aF0
aF0
aF0
aF0
aF0
aF0
aF0
aF0
aF0
aF0
aF0
aF0
aF0
aF0
aF0
aa(lp1019
F1
aF0
aF0
aF0
aF0
aF0
aF0
aF0
aF0
aF0
aF0
aF0
aF0
aF0
aF0
aF0
aa(lp1020
F0
aF0
aF0
aF0
aF0
aF0.25
aF0
aF0
aF0
aF0
aF0.25
aF0
aF0
aF0.25
aF0
aF0.25
aa(lp1021
F1
aF0
aF0
aF0
aF0
aF0
aF0
aF0
aF0
aF0
aF0
aF0
aF0
aF0
aF0
aF0
aa(lp1022
F1
aF0
aF0
aF0
aF0
aF0
aF0
aF0
aF0
aF0
aF0
aF0
aF0
aF0
aF0
aF0
aa(lp1023
F1
aF0
aF0
aF0
aF0
aF0
aF0
aF0
aF0
aF0
aF0
aF0
aF0
aF0
aF0
aF0
aa(lp1024
F1
aF0
aF0
aF0
aF0
aF0
aF0
aF0
aF0
aF0
aF0
aF0
aF0
aF0
aF0
aF0
aa(lp1025
F1
aF0
aF0
aF0
aF0
aF0
aF0
aF0
aF0
aF0
aF0
aF0
aF0
aF0
aF0
aF0
aa(lp1026
F0
aF0
aF0
aF0
aF0
aF0.125
aF0
aF0
aF0
aF0
aF0.5
aF0
aF0
aF0.125
aF0
aF0.25
aa(lp1027
F1
aF0
aF0
aF0
aF0
aF0
aF0
aF0
aF0
aF0
aF0
aF0
aF0
aF0
aF0
aF0
aa(lp1028
F1
aF0
aF0
aF0
aF0
aF0
aF0
aF0
aF0
aF0
aF0
aF0
aF0
aF0
aF0
aF0
aa(lp1029
F1
aF0
aF0
aF0
aF0
aF0
aF0
aF0
aF0
aF0
aF0
aF0
aF0
aF0
aF0
aF0
aasg53
g987
sbsS'S11'
p1030
(iclusterfk.Mantis
MantisState
p1031
(dp1032
g8
I0
sg9
(lp1033
I00
aI00
aI00
aI00
aI00
aI00
aI00
aI00
aI00
aI00
aI00
aI00
aI00
aI00
aI00
aI00
asg11
(lp1034
I0
aI0
aI0
aI0
aI0
aI0
aI6
aI0
aI0
aI0
aI6
aI0
aI0
aI0
aI0
aI0
asg13
(lp1035
(lp1036
(lp1037
I0
aa(lp1038
I0
aa(lp1039
I0
aa(lp1040
I0
aaa(lp1041
(lp1042
I0
aa(lp1043
I0
aa(lp1044
I10
aI13
aI5
aI15
aa(lp1045
I0
aaa(lp1046
(lp1047
I0
aa(lp1048
I0
aa(lp1049
I10
aI13
aI5
aI15
aa(lp1050
I0
aaa(lp1051
(lp1052
I0
aa(lp1053
I0
aa(lp1054
I0
aa(lp1055
I0
aaasg35
(lp1056
(lp1057
F1
aF0
aF0
aF0
aF0
aF0
aF0
aF0
aF0
aF0
aF0
aF0
aF0
aF0
aF0
aF0
aa(lp1058
F1
aF0
aF0
aF0
aF0
aF0
aF0
aF0
aF0
aF0
aF0
aF0
aF0
aF0
aF0
aF0
aa(lp1059
F1
aF0
aF0
aF0
aF0
aF0
aF0
aF0
aF0
aF0
aF0
aF0
aF0
aF0
aF0
aF0
aa(lp1060
F1
aF0
aF0
aF0
aF0
aF0
aF0
aF0
aF0
aF0
aF0
aF0
aF0
aF0
aF0
aF0
aa(lp1061
F1
aF0
aF0
aF0
aF0
aF0
aF0
aF0
aF0
aF0
aF0
aF0
aF0
aF0
aF0
aF0
aa(lp1062
F1
aF0
aF0
aF0
aF0
aF0
aF0
aF0
aF0
aF0
aF0
aF0
aF0
aF0
aF0
aF0
aa(lp1063
F0
aF0
aF0
aF0
aF0
aF0.25
aF0
aF0
aF0
aF0
aF0.25
aF0
aF0
aF0.25
aF0
aF0.25
aa(lp1064
F1
aF0
aF0
aF0
aF0
aF0
aF0
aF0
aF0
aF0
aF0
aF0
aF0
aF0
aF0
aF0
aa(lp1065
F1
aF0
aF0
aF0
aF0
aF0
aF0
aF0
aF0
aF0
aF0
aF0
aF0
aF0
aF0
aF0
aa(lp1066
F1
aF0
aF0
aF0
aF0
aF0
aF0
aF0
aF0
aF0
aF0
aF0
aF0
aF0
aF0
aF0
aa(lp1067
F0
aF0
aF0
aF0
aF0
aF0.25
aF0
aF0
aF0
aF0
aF0.25
aF0
aF0
aF0.25
aF0
aF0.25
aa(lp1068
F1
aF0
aF0
aF0
aF0
aF0
aF0
aF0
aF0
aF0
aF0
aF0
aF0
aF0
aF0
aF0
aa(lp1069
F1
aF0
aF0
aF0
aF0
aF0
aF0
aF0
aF0
aF0
aF0
aF0
aF0
aF0
aF0
aF0
aa(lp1070
F1
aF0
aF0
aF0
aF0
aF0
aF0
aF0
aF0
aF0
aF0
aF0
aF0
aF0
aF0
aF0
aa(lp1071
F1
aF0
aF0
aF0
aF0
aF0
aF0
aF0
aF0
aF0
aF0
aF0
aF0
aF0
aF0
aF0
aa(lp1072
F1
aF0
aF0
aF0
aF0
aF0
aF0
aF0
aF0
aF0
aF0
aF0
aF0
aF0
aF0
aF0
aasg53
g1030
sbsS'S10'
p1073
(iclusterfk.Mantis
MantisState
p1074
(dp1075
g8
I0
sg9
(lp1076
I00
aI00
aI00
aI00
aI00
aI00
aI00
aI00
aI00
aI00
aI00
aI00
aI00
aI00
aI00
aI00
asg11
(lp1077
I0
aI0
aI0
aI0
aI0
aI0
aI0
aI0
aI0
aI0
aI0
aI0
aI0
aI0
aI0
aI0
asg13
(lp1078
(lp1079
(lp1080
I10
aa(lp1081
I0
aa(lp1082
I0
aa(lp1083
I0
aaa(lp1084
(lp1085
I10
aa(lp1086
I0
aa(lp1087
I0
aa(lp1088
I0
aaa(lp1089
(lp1090
I0
aa(lp1091
I0
aa(lp1092
I0
aa(lp1093
I0
aaa(lp1094
(lp1095
I0
aa(lp1096
I0
aa(lp1097
I0
aa(lp1098
I0
aaasg35
(lp1099
(lp1100
F0
aF0
aF0
aF0
aF0
aF0
aF0
aF0
aF0
aF0
aF1
aF0
aF0
aF0
aF0
aF0
aa(lp1101
F1
aF0
aF0
aF0
aF0
aF0
aF0
aF0
aF0
aF0
aF0
aF0
aF0
aF0
aF0
aF0
aa(lp1102
F1
aF0
aF0
aF0
aF0
aF0
aF0
aF0
aF0
aF0
aF0
aF0
aF0
aF0
aF0
aF0
aa(lp1103
F1
aF0
aF0
aF0
aF0
aF0
aF0
aF0
aF0
aF0
aF0
aF0
aF0
aF0
aF0
aF0
aa(lp1104
F0
aF0
aF0
aF0
aF0
aF0
aF0
aF0
aF0
aF0
aF1
aF0
aF0
aF0
aF0
aF0
aa(lp1105
F1
aF0
aF0
aF0
aF0
aF0
aF0
aF0
aF0
aF0
aF0
aF0
aF0
aF0
aF0
aF0
aa(lp1106
F1
aF0
aF0
aF0
aF0
aF0
aF0
aF0
aF0
aF0
aF0
aF0
aF0
aF0
aF0
aF0
aa(lp1107
F1
aF0
aF0
aF0
aF0
aF0
aF0
aF0
aF0
aF0
aF0
aF0
aF0
aF0
aF0
aF0
aa(lp1108
F1
aF0
aF0
aF0
aF0
aF0
aF0
aF0
aF0
aF0
aF0
aF0
aF0
aF0
aF0
aF0
aa(lp1109
F1
aF0
aF0
aF0
aF0
aF0
aF0
aF0
aF0
aF0
aF0
aF0
aF0
aF0
aF0
aF0
aa(lp1110
F1
aF0
aF0
aF0
aF0
aF0
aF0
aF0
aF0
aF0
aF0
aF0
aF0
aF0
aF0
aF0
aa(lp1111
F1
aF0
aF0
aF0
aF0
aF0
aF0
aF0
aF0
aF0
aF0
aF0
aF0
aF0
aF0
aF0
aa(lp1112
F1
aF0
aF0
aF0
aF0
aF0
aF0
aF0
aF0
aF0
aF0
aF0
aF0
aF0
aF0
aF0
aa(lp1113
F1
aF0
aF0
aF0
aF0
aF0
aF0
aF0
aF0
aF0
aF0
aF0
aF0
aF0
aF0
aF0
aa(lp1114
F1
aF0
aF0
aF0
aF0
aF0
aF0
aF0
aF0
aF0
aF0
aF0
aF0
aF0
aF0
aF0
aa(lp1115
F1
aF0
aF0
aF0
aF0
aF0
aF0
aF0
aF0
aF0
aF0
aF0
aF0
aF0
aF0
aF0
aasg53
g1073
sbsS'P12'
p1116
(iclusterfk.Mantis
MantisState
p1117
(dp1118
g8
I0
sg9
(lp1119
I00
aI00
aI00
aI00
aI00
aI00
aI00
aI00
aI00
aI00
aI00
aI00
aI00
aI00
aI00
aI00
asg11
(lp1120
I7
aI0
aI0
aI0
aI0
aI7
aI8
aI0
aI0
aI0
aI7
aI0
aI8
aI0
aI0
aI0
asg13
(lp1121
(lp1122
(lp1123
I10
aI5
aI13
aI15
aa(lp1124
I0
aa(lp1125
I10
aa(lp1126
I0
aaa(lp1127
(lp1128
I0
aa(lp1129
I10
aI5
aI13
aI15
aa(lp1130
I10
aI13
aI5
aI15
aa(lp1131
I10
aaa(lp1132
(lp1133
I10
aa(lp1134
I0
aa(lp1135
I10
aI5
aI13
aI15
aa(lp1136
I0
aaa(lp1137
(lp1138
I10
aI13
aI5
aI15
aa(lp1139
I0
aa(lp1140
I0
aa(lp1141
I0
aaasg35
(lp1142
(lp1143
F0
aF0
aF0
aF0
aF0
aF0.125
aF0
aF0
aF0
aF0
aF0.5
aF0
aF0
aF0.125
aF0
aF0.25
aa(lp1144
F1
aF0
aF0
aF0
aF0
aF0
aF0
aF0
aF0
aF0
aF0
aF0
aF0
aF0
aF0
aF0
aa(lp1145
F0
aF0
aF0
aF0
aF0
aF0
aF0
aF0
aF0
aF0
aF1
aF0
aF0
aF0
aF0
aF0
aa(lp1146
F1
aF0
aF0
aF0
aF0
aF0
aF0
aF0
aF0
aF0
aF0
aF0
aF0
aF0
aF0
aF0
aa(lp1147
F1
aF0
aF0
aF0
aF0
aF0
aF0
aF0
aF0
aF0
aF0
aF0
aF0
aF0
aF0
aF0
aa(lp1148
F0
aF0
aF0
aF0
aF0
aF0.125
aF0
aF0
aF0
aF0
aF0.5
aF0
aF0
aF0.125
aF0
aF0.25
aa(lp1149
F0
aF0
aF0
aF0
aF0
aF0.25
aF0
aF0
aF0
aF0
aF0.25
aF0
aF0
aF0.25
aF0
aF0.25
aa(lp1150
F0
aF0
aF0
aF0
aF0
aF0
aF0
aF0
aF0
aF0
aF1
aF0
aF0
aF0
aF0
aF0
aa(lp1151
F0
aF0
aF0
aF0
aF0
aF0
aF0
aF0
aF0
aF0
aF1
aF0
aF0
aF0
aF0
aF0
aa(lp1152
F1
aF0
aF0
aF0
aF0
aF0
aF0
aF0
aF0
aF0
aF0
aF0
aF0
aF0
aF0
aF0
aa(lp1153
F0
aF0
aF0
aF0
aF0
aF0.125
aF0
aF0
aF0
aF0
aF0.5
aF0
aF0
aF0.125
aF0
aF0.25
aa(lp1154
F1
aF0
aF0
aF0
aF0
aF0
aF0
aF0
aF0
aF0
aF0
aF0
aF0
aF0
aF0
aF0
aa(lp1155
F0
aF0
aF0
aF0
aF0
aF0.25
aF0
aF0
aF0
aF0
aF0.25
aF0
aF0
aF0.25
aF0
aF0.25
aa(lp1156
F1
aF0
aF0
aF0
aF0
aF0
aF0
aF0
aF0
aF0
aF0
aF0
aF0
aF0
aF0
aF0
aa(lp1157
F1
aF0
aF0
aF0
aF0
aF0
aF0
aF0
aF0
aF0
aF0
aF0
aF0
aF0
aF0
aF0
aa(lp1158
F1
aF0
aF0
aF0
aF0
aF0
aF0
aF0
aF0
aF0
aF0
aF0
aF0
aF0
aF0
aF0
aasg53
g1116
sbsS'S14'
p1159
(iclusterfk.Mantis
MantisState
p1160
(dp1161
g8
I0
sg9
(lp1162
I00
aI00
aI00
aI00
aI00
aI00
aI00
aI00
aI00
aI00
aI00
aI00
aI00
aI00
aI00
aI00
asg11
(lp1163
I0
aI0
aI0
aI0
aI0
aI0
aI0
aI0
aI0
aI0
aI0
aI0
aI0
aI0
aI0
aI0
asg13
(lp1164
(lp1165
(lp1166
I0
aa(lp1167
I0
aa(lp1168
I1
aI3
aI4
aI5
aI6
aI7
aI9
aI10
aI11
aI12
aI13
aI14
aI15
aa(lp1169
I0
aaa(lp1170
(lp1171
I1
aI2
aI3
aI4
aI5
aI6
aI7
aI8
aI9
aI10
aI11
aI12
aI13
aI14
aI15
aa(lp1172
I0
aa(lp1173
I1
aI3
aI4
aI5
aI6
aI7
aI9
aI10
aI11
aI12
aI13
aI14
aI15
aa(lp1174
I0
aaa(lp1175
(lp1176
I1
aI3
aI4
aI5
aI6
aI7
aI9
aI10
aI11
aI12
aI13
aI14
aI15
aa(lp1177
I0
aa(lp1178
I0
aI1
aI3
aI4
aI5
aI6
aI7
aI9
aI10
aI11
aI12
aI13
aI14
aI15
aa(lp1179
I1
aI2
aI3
aI4
aI5
aI6
aI7
aI8
aI9
aI10
aI11
aI12
aI13
aI14
aI15
aaa(lp1180
(lp1181
I0
aa(lp1182
I1
aI3
aI4
aI5
aI6
aI7
aI9
aI10
aI11
aI12
aI13
aI14
aI15
aa(lp1183
I0
aI1
aI2
aI3
aI4
aI5
aI6
aI7
aI8
aI9
aI10
aI11
aI12
aI13
aI14
aI15
aa(lp1184
I0
aaasg35
(lp1185
(lp1186
F1
aF0
aF0
aF0
aF0
aF0
aF0
aF0
aF0
aF0
aF0
aF0
aF0
aF0
aF0
aF0
aa(lp1187
F1
aF0
aF0
aF0
aF0
aF0
aF0
aF0
aF0
aF0
aF0
aF0
aF0
aF0
aF0
aF0
aa(lp1188
F0
aF0.03125
aF0
aF0.0625
aF0.03125
aF0.0625
aF0.0625
aF0.125
aF0
aF0.03125
aF0.25
aF0.0625
aF0.03125
aF0.0625
aF0.0625
aF0.125
aa(lp1189
F1
aF0
aF0
aF0
aF0
aF0
aF0
aF0
aF0
aF0
aF0
aF0
aF0
aF0
aF0
aF0
aa(lp1190
F0
aF0.03125
aF0.015625
aF0.0625
aF0.03125
aF0.0859375
aF0.0625
aF0.0859375
aF0.03125
aF0.03125
aF0.171875
aF0.0625
aF0.03125
aF0.1015625
aF0.0625
aF0.1328125
aa(lp1191
F1
aF0
aF0
aF0
aF0
aF0
aF0
aF0
aF0
aF0
aF0
aF0
aF0
aF0
aF0
aF0
aa(lp1192
F0
aF0.0096153846153846159
aF0
aF0.038461538461538464
aF0.0096153846153846159
aF0.15384615384615385
aF0.038461538461538464
aF0.038461538461538464
aF0
aF0.0096153846153846159
aF0.25
aF0.038461538461538464
aF0.0096153846153846159
aF0.15384615384615385
aF0.038461538461538464
aF0.21153846153846156
aa(lp1193
F1
aF0
aF0
aF0
aF0
aF0
aF0
aF0
aF0
aF0
aF0
aF0
aF0
aF0
aF0
aF0
aa(lp1194
F0
aF0.03125
aF0
aF0.0625
aF0.03125
aF0.0625
aF0.0625
aF0.125
aF0
aF0.03125
aF0.25
aF0.0625
aF0.03125
aF0.0625
aF0.0625
aF0.125
aa(lp1195
F1
aF0
aF0
aF0
aF0
aF0
aF0
aF0
aF0
aF0
aF0
aF0
aF0
aF0
aF0
aF0
aa(lp1196
F0.61538461538461531
aF0.02884615384615383
aF0
aF0.019230769230769228
aF0.02884615384615383
aF0.019230769230769228
aF0.019230769230769228
aF0.057692307692307661
aF0
aF0.02884615384615383
aF0.076923076923076886
aF0.019230769230769228
aF0.02884615384615383
aF0.019230769230769228
aF0.019230769230769228
aF0.019230769230769228
aa(lp1197
F0
aF0.03125
aF0.015625
aF0.0625
aF0.03125
aF0.0859375
aF0.0625
aF0.0859375
aF0.03125
aF0.03125
aF0.171875
aF0.0625
aF0.03125
aF0.1015625
aF0.0625
aF0.1328125
aa(lp1198
F1
aF0
aF0
aF0
aF0
aF0
aF0
aF0
aF0
aF0
aF0
aF0
aF0
aF0
aF0
aF0
aa(lp1199
F0
aF0.03125
aF0
aF0.0625
aF0.03125
aF0.0625
aF0.0625
aF0.125
aF0
aF0.03125
aF0.25
aF0.0625
aF0.03125
aF0.0625
aF0.0625
aF0.125
aa(lp1200
F0.25
aF0.0390625
aF0.046875
aF0.0546875
aF0.0390625
aF0.0546875
aF0.0546875
aF0.0703125
aF0.03125
aF0.0390625
aF0.09375
aF0.0546875
aF0.0390625
aF0.0390625
aF0.0546875
aF0.0390625
aa(lp1201
F1
aF0
aF0
aF0
aF0
aF0
aF0
aF0
aF0
aF0
aF0
aF0
aF0
aF0
aF0
aF0
aasg53
g1159
sbsS'A1'
p1202
(iclusterfk.Mantis
MantisState
p1203
(dp1204
g8
I0
sg9
(lp1205
I00
aI00
aI00
aI00
aI00
aI00
aI00
aI00
aI00
aI00
aI00
aI00
aI00
aI00
aI00
aI00
asg11
(lp1206
I0
aI0
aI2
aI0
aI0
aI0
aI1
aI0
aI2
aI0
aI0
aI0
aI0
aI2
aI0
aI0
asg13
(lp1207
(lp1208
(lp1209
I0
aa(lp1210
I0
aa(lp1211
I10
aI5
aI13
aI15
aa(lp1212
I0
aaa(lp1213
(lp1214
I10
aa(lp1215
I0
aa(lp1216
I10
aI5
aI13
aI15
aa(lp1217
I0
aaa(lp1218
(lp1219
I10
aI5
aI13
aI15
aa(lp1220
I0
aa(lp1221
I0
aa(lp1222
I10
aaa(lp1223
(lp1224
I0
aa(lp1225
I10
aI5
aI13
aI15
aa(lp1226
I0
aa(lp1227
I0
aaasg35
(lp1228
(lp1229
F1
aF0
aF0
aF0
aF0
aF0
aF0
aF0
aF0
aF0
aF0
aF0
aF0
aF0
aF0
aF0
aa(lp1230
F1
aF0
aF0
aF0
aF0
aF0
aF0
aF0
aF0
aF0
aF0
aF0
aF0
aF0
aF0
aF0
aa(lp1231
F0
aF0
aF0
aF0
aF0
aF0.125
aF0
aF0
aF0
aF0
aF0.5
aF0
aF0
aF0.125
aF0
aF0.25
aa(lp1232
F1
aF0
aF0
aF0
aF0
aF0
aF0
aF0
aF0
aF0
aF0
aF0
aF0
aF0
aF0
aF0
aa(lp1233
F0
aF0
aF0
aF0
aF0
aF0
aF0
aF0
aF0
aF0
aF1
aF0
aF0
aF0
aF0
aF0
aa(lp1234
F1
aF0
aF0
aF0
aF0
aF0
aF0
aF0
aF0
aF0
aF0
aF0
aF0
aF0
aF0
aF0
aa(lp1235
F0
aF0
aF0
aF0
aF0
aF0.125
aF0
aF0
aF0
aF0
aF0.5
aF0
aF0
aF0.125
aF0
aF0.25
aa(lp1236
F1
aF0
aF0
aF0
aF0
aF0
aF0
aF0
aF0
aF0
aF0
aF0
aF0
aF0
aF0
aF0
aa(lp1237
F0
aF0
aF0
aF0
aF0
aF0.125
aF0
aF0
aF0
aF0
aF0.5
aF0
aF0
aF0.125
aF0
aF0.25
aa(lp1238
F1
aF0
aF0
aF0
aF0
aF0
aF0
aF0
aF0
aF0
aF0
aF0
aF0
aF0
aF0
aF0
aa(lp1239
F1
aF0
aF0
aF0
aF0
aF0
aF0
aF0
aF0
aF0
aF0
aF0
aF0
aF0
aF0
aF0
aa(lp1240
F0
aF0
aF0
aF0
aF0
aF0
aF0
aF0
aF0
aF0
aF1
aF0
aF0
aF0
aF0
aF0
aa(lp1241
F1
aF0
aF0
aF0
aF0
aF0
aF0
aF0
aF0
aF0
aF0
aF0
aF0
aF0
aF0
aF0
aa(lp1242
F0
aF0
aF0
aF0
aF0
aF0.125
aF0
aF0
aF0
aF0
aF0.5
aF0
aF0
aF0.125
aF0
aF0.25
aa(lp1243
F1
aF0
aF0
aF0
aF0
aF0
aF0
aF0
aF0
aF0
aF0
aF0
aF0
aF0
aF0
aF0
aa(lp1244
F1
aF0
aF0
aF0
aF0
aF0
aF0
aF0
aF0
aF0
aF0
aF0
aF0
aF0
aF0
aF0
aasg53
g1202
sbsS'A0'
p1245
(iclusterfk.Mantis
MantisState
p1246
(dp1247
g8
I0
sg9
(lp1248
I00
aI00
aI00
aI00
aI00
aI00
aI00
aI00
aI00
aI00
aI00
aI00
aI00
aI00
aI00
aI00
asg11
(lp1249
I0
aI0
aI0
aI0
aI0
aI0
aI0
aI0
aI0
aI0
aI0
aI0
aI0
aI0
aI0
aI0
asg13
(lp1250
(lp1251
(lp1252
I0
aa(lp1253
I0
aa(lp1254
I10
aI5
aI13
aI15
aa(lp1255
I0
aaa(lp1256
(lp1257
I10
aI5
aI13
aI15
aa(lp1258
I0
aa(lp1259
I10
aI13
aI5
aI15
aa(lp1260
I0
aaa(lp1261
(lp1262
I10
aI13
aI5
aI15
aa(lp1263
I0
aa(lp1264
I10
aa(lp1265
I10
aI5
aI13
aI15
aaa(lp1266
(lp1267
I0
aa(lp1268
I0
aI15
aI5
aI7
aa(lp1269
I0
aa(lp1270
I0
aaasg35
(lp1271
(lp1272
F0
aF0
aF0
aF0
aF0
aF0
aF0
aF0
aF0
aF0
aF0
aF0
aF0
aF0
aF0
aF0
aa(lp1273
F0
aF0
aF0
aF0
aF0
aF0
aF0
aF0
aF0
aF0
aF0
aF0
aF0
aF0
aF0
aF0
aa(lp1274
F0
aF0
aF0
aF0
aF0
aF0
aF0
aF0
aF0
aF0
aF0
aF0
aF0
aF0
aF0
aF0
aa(lp1275
F0
aF0
aF0
aF0
aF0
aF0
aF0
aF0
aF0
aF0
aF0
aF0
aF0
aF0
aF0
aF0
aa(lp1276
F0
aF0
aF0
aF0
aF0
aF0
aF0
aF0
aF0
aF0
aF0
aF0
aF0
aF0
aF0
aF0
aa(lp1277
F0
aF0
aF0
aF0
aF0
aF0
aF0
aF0
aF0
aF0
aF0
aF0
aF0
aF0
aF0
aF0
aa(lp1278
F0
aF0
aF0
aF0
aF0
aF0
aF0
aF0
aF0
aF0
aF0
aF0
aF0
aF0
aF0
aF0
aa(lp1279
F0
aF0
aF0
aF0
aF0
aF0
aF0
aF0
aF0
aF0
aF0
aF0
aF0
aF0
aF0
aF0
aa(lp1280
F0
aF0
aF0
aF0
aF0
aF0
aF0
aF0
aF0
aF0
aF0
aF0
aF0
aF0
aF0
aF0
aa(lp1281
F0
aF0
aF0
aF0
aF0
aF0
aF0
aF0
aF0
aF0
aF0
aF0
aF0
aF0
aF0
aF0
aa(lp1282
F0
aF0
aF0
aF0
aF0
aF0
aF0
aF0
aF0
aF0
aF0
aF0
aF0
aF0
aF0
aF0
aa(lp1283
F0
aF0
aF0
aF0
aF0
aF0
aF0
aF0
aF0
aF0
aF0
aF0
aF0
aF0
aF0
aF0
aa(lp1284
F0
aF0
aF0
aF0
aF0
aF0
aF0
aF0
aF0
aF0
aF0
aF0
aF0
aF0
aF0
aF0
aa(lp1285
F0
aF0
aF0
aF0
aF0
aF0
aF0
aF0
aF0
aF0
aF0
aF0
aF0
aF0
aF0
aF0
aa(lp1286
F0
aF0
aF0
aF0
aF0
aF0
aF0
aF0
aF0
aF0
aF0
aF0
aF0
aF0
aF0
aF0
aa(lp1287
F0
aF0
aF0
aF0
aF0
aF0
aF0
aF0
aF0
aF0
aF0
aF0
aF0
aF0
aF0
aF0
aasg53
g1245
sbsS'A3'
p1288
(iclusterfk.Mantis
MantisState
p1289
(dp1290
g8
I0
sg9
(lp1291
I00
aI00
aI00
aI00
aI00
aI00
aI00
aI00
aI00
aI00
aI00
aI00
aI00
aI00
aI00
aI00
asg11
(lp1292
I0
aI0
aI0
aI5
aI0
aI0
aI0
aI0
aI0
aI0
aI0
aI0
aI5
aI0
aI0
aI0
asg13
(lp1293
(lp1294
(lp1295
I0
aa(lp1296
I0
aa(lp1297
I10
aa(lp1298
I10
aI5
aI13
aI15
aaa(lp1299
(lp1300
I0
aa(lp1301
I0
aa(lp1302
I10
aa(lp1303
I0
aaa(lp1304
(lp1305
I0
aa(lp1306
I0
aa(lp1307
I0
aa(lp1308
I0
aaa(lp1309
(lp1310
I10
aI5
aI13
aI15
aa(lp1311
I0
aa(lp1312
I0
aa(lp1313
I0
aaasg35
(lp1314
(lp1315
F1
aF0
aF0
aF0
aF0
aF0
aF0
aF0
aF0
aF0
aF0
aF0
aF0
aF0
aF0
aF0
aa(lp1316
F1
aF0
aF0
aF0
aF0
aF0
aF0
aF0
aF0
aF0
aF0
aF0
aF0
aF0
aF0
aF0
aa(lp1317
F0
aF0
aF0
aF0
aF0
aF0
aF0
aF0
aF0
aF0
aF1
aF0
aF0
aF0
aF0
aF0
aa(lp1318
F0
aF0
aF0
aF0
aF0
aF0.25
aF0
aF0
aF0
aF0
aF0.25
aF0
aF0
aF0.25
aF0
aF0.25
aa(lp1319
F1
aF0
aF0
aF0
aF0
aF0
aF0
aF0
aF0
aF0
aF0
aF0
aF0
aF0
aF0
aF0
aa(lp1320
F1
aF0
aF0
aF0
aF0
aF0
aF0
aF0
aF0
aF0
aF0
aF0
aF0
aF0
aF0
aF0
aa(lp1321
F0
aF0
aF0
aF0
aF0
aF0
aF0
aF0
aF0
aF0
aF1
aF0
aF0
aF0
aF0
aF0
aa(lp1322
F1
aF0
aF0
aF0
aF0
aF0
aF0
aF0
aF0
aF0
aF0
aF0
aF0
aF0
aF0
aF0
aa(lp1323
F1
aF0
aF0
aF0
aF0
aF0
aF0
aF0
aF0
aF0
aF0
aF0
aF0
aF0
aF0
aF0
aa(lp1324
F1
aF0
aF0
aF0
aF0
aF0
aF0
aF0
aF0
aF0
aF0
aF0
aF0
aF0
aF0
aF0
aa(lp1325
F1
aF0
aF0
aF0
aF0
aF0
aF0
aF0
aF0
aF0
aF0
aF0
aF0
aF0
aF0
aF0
aa(lp1326
F1
aF0
aF0
aF0
aF0
aF0
aF0
aF0
aF0
aF0
aF0
aF0
aF0
aF0
aF0
aF0
aa(lp1327
F0
aF0
aF0
aF0
aF0
aF0.15384615384615385
aF0
aF0
aF0
aF0
aF0.42307692307692302
aF0
aF0
aF0.15384615384615385
aF0
aF0.26923076923076922
aa(lp1328
F1
aF0
aF0
aF0
aF0
aF0
aF0
aF0
aF0
aF0
aF0
aF0
aF0
aF0
aF0
aF0
aa(lp1329
F1
aF0
aF0
aF0
aF0
aF0
aF0
aF0
aF0
aF0
aF0
aF0
aF0
aF0
aF0
aF0
aa(lp1330
F1
aF0
aF0
aF0
aF0
aF0
aF0
aF0
aF0
aF0
aF0
aF0
aF0
aF0
aF0
aF0
aasg53
g1288
sbsS'A2'
p1331
(iclusterfk.Mantis
MantisState
p1332
(dp1333
g8
I0
sg9
(lp1334
I00
aI00
aI00
aI00
aI00
aI00
aI00
aI00
aI00
aI00
aI00
aI00
aI00
aI00
aI00
aI00
asg11
(lp1335
I3
aI0
aI0
aI0
aI0
aI3
aI4
aI0
aI0
aI0
aI3
aI0
aI4
aI0
aI0
aI0
asg13
(lp1336
(lp1337
(lp1338
I10
aI13
aI5
aI15
aa(lp1339
I0
aa(lp1340
I0
aa(lp1341
I0
aaa(lp1342
(lp1343
I0
aa(lp1344
I10
aI13
aI5
aI15
aa(lp1345
I10
aI5
aI13
aI15
aa(lp1346
I10
aaa(lp1347
(lp1348
I10
aa(lp1349
I0
aa(lp1350
I10
aI13
aI5
aI15
aa(lp1351
I0
aaa(lp1352
(lp1353
I10
aI5
aI13
aI15
aa(lp1354
I0
aa(lp1355
I10
aa(lp1356
I0
aaasg35
(lp1357
(lp1358
F0
aF0
aF0
aF0
aF0
aF0.25
aF0
aF0
aF0
aF0
aF0.25
aF0
aF0
aF0.25
aF0
aF0.25
aa(lp1359
F1
aF0
aF0
aF0
aF0
aF0
aF0
aF0
aF0
aF0
aF0
aF0
aF0
aF0
aF0
aF0
aa(lp1360
F1
aF0
aF0
aF0
aF0
aF0
aF0
aF0
aF0
aF0
aF0
aF0
aF0
aF0
aF0
aF0
aa(lp1361
F1
aF0
aF0
aF0
aF0
aF0
aF0
aF0
aF0
aF0
aF0
aF0
aF0
aF0
aF0
aF0
aa(lp1362
F1
aF0
aF0
aF0
aF0
aF0
aF0
aF0
aF0
aF0
aF0
aF0
aF0
aF0
aF0
aF0
aa(lp1363
F0
aF0
aF0
aF0
aF0
aF0.25
aF0
aF0
aF0
aF0
aF0.25
aF0
aF0
aF0.25
aF0
aF0.25
aa(lp1364
F0
aF0
aF0
aF0
aF0
aF0.18181818181818182
aF0
aF0
aF0
aF0
aF0.36363636363636365
aF0
aF0
aF0.18181818181818182
aF0
aF0.27272727272727271
aa(lp1365
F0
aF0
aF0
aF0
aF0
aF0
aF0
aF0
aF0
aF0
aF1
aF0
aF0
aF0
aF0
aF0
aa(lp1366
F0
aF0
aF0
aF0
aF0
aF0
aF0
aF0
aF0
aF0
aF1
aF0
aF0
aF0
aF0
aF0
aa(lp1367
F1
aF0
aF0
aF0
aF0
aF0
aF0
aF0
aF0
aF0
aF0
aF0
aF0
aF0
aF0
aF0
aa(lp1368
F0
aF0
aF0
aF0
aF0
aF0.18181818181818182
aF0
aF0
aF0
aF0
aF0.36363636363636365
aF0
aF0
aF0.18181818181818182
aF0
aF0.27272727272727271
aa(lp1369
F1
aF0
aF0
aF0
aF0
aF0
aF0
aF0
aF0
aF0
aF0
aF0
aF0
aF0
aF0
aF0
aa(lp1370
F0
aF0
aF0
aF0
aF0
aF0.25
aF0
aF0
aF0
aF0
aF0.25
aF0
aF0
aF0.25
aF0
aF0.25
aa(lp1371
F1
aF0
aF0
aF0
aF0
aF0
aF0
aF0
aF0
aF0
aF0
aF0
aF0
aF0
aF0
aF0
aa(lp1372
F0
aF0
aF0
aF0
aF0
aF0
aF0
aF0
aF0
aF0
aF1
aF0
aF0
aF0
aF0
aF0
aa(lp1373
F1
aF0
aF0
aF0
aF0
aF0
aF0
aF0
aF0
aF0
aF0
aF0
aF0
aF0
aF0
aF0
aasg53
g1331
sbsS'A5'
p1374
(iclusterfk.Mantis
MantisState
p1375
(dp1376
g8
I0
sg9
(lp1377
I00
aI00
aI00
aI00
aI00
aI00
aI00
aI00
aI00
aI00
aI00
aI00
aI00
aI00
aI00
aI00
asg11
(lp1378
I0
aI0
aI0
aI0
aI0
aI0
aI0
aI0
aI0
aI0
aI0
aI0
aI0
aI0
aI0
aI0
asg13
(lp1379
(lp1380
(lp1381
I10
aa(lp1382
I0
aa(lp1383
I0
aa(lp1384
I0
aaa(lp1385
(lp1386
I10
aa(lp1387
I0
aa(lp1388
I0
aa(lp1389
I0
aaa(lp1390
(lp1391
I0
aa(lp1392
I0
aa(lp1393
I0
aa(lp1394
I0
aaa(lp1395
(lp1396
I0
aa(lp1397
I0
aa(lp1398
I0
aa(lp1399
I0
aaasg35
(lp1400
(lp1401
F0
aF0
aF0
aF0
aF0
aF0
aF0
aF0
aF0
aF0
aF1
aF0
aF0
aF0
aF0
aF0
aa(lp1402
F1
aF0
aF0
aF0
aF0
aF0
aF0
aF0
aF0
aF0
aF0
aF0
aF0
aF0
aF0
aF0
aa(lp1403
F1
aF0
aF0
aF0
aF0
aF0
aF0
aF0
aF0
aF0
aF0
aF0
aF0
aF0
aF0
aF0
aa(lp1404
F1
aF0
aF0
aF0
aF0
aF0
aF0
aF0
aF0
aF0
aF0
aF0
aF0
aF0
aF0
aF0
aa(lp1405
F0
aF0
aF0
aF0
aF0
aF0
aF0
aF0
aF0
aF0
aF1
aF0
aF0
aF0
aF0
aF0
aa(lp1406
F1
aF0
aF0
aF0
aF0
aF0
aF0
aF0
aF0
aF0
aF0
aF0
aF0
aF0
aF0
aF0
aa(lp1407
F1
aF0
aF0
aF0
aF0
aF0
aF0
aF0
aF0
aF0
aF0
aF0
aF0
aF0
aF0
aF0
aa(lp1408
F1
aF0
aF0
aF0
aF0
aF0
aF0
aF0
aF0
aF0
aF0
aF0
aF0
aF0
aF0
aF0
aa(lp1409
F1
aF0
aF0
aF0
aF0
aF0
aF0
aF0
aF0
aF0
aF0
aF0
aF0
aF0
aF0
aF0
aa(lp1410
F1
aF0
aF0
aF0
aF0
aF0
aF0
aF0
aF0
aF0
aF0
aF0
aF0
aF0
aF0
aF0
aa(lp1411
F1
aF0
aF0
aF0
aF0
aF0
aF0
aF0
aF0
aF0
aF0
aF0
aF0
aF0
aF0
aF0
aa(lp1412
F1
aF0
aF0
aF0
aF0
aF0
aF0
aF0
aF0
aF0
aF0
aF0
aF0
aF0
aF0
aF0
aa(lp1413
F1
aF0
aF0
aF0
aF0
aF0
aF0
aF0
aF0
aF0
aF0
aF0
aF0
aF0
aF0
aF0
aa(lp1414
F1
aF0
aF0
aF0
aF0
aF0
aF0
aF0
aF0
aF0
aF0
aF0
aF0
aF0
aF0
aF0
aa(lp1415
F1
aF0
aF0
aF0
aF0
aF0
aF0
aF0
aF0
aF0
aF0
aF0
aF0
aF0
aF0
aF0
aa(lp1416
F1
aF0
aF0
aF0
aF0
aF0
aF0
aF0
aF0
aF0
aF0
aF0
aF0
aF0
aF0
aF0
aasg53
g1374
sbsS'A4'
p1417
(iclusterfk.Mantis
MantisState
p1418
(dp1419
g8
I0
sg9
(lp1420
I00
aI00
aI00
aI00
aI00
aI00
aI00
aI00
aI00
aI00
aI00
aI00
aI00
aI00
aI00
aI00
asg11
(lp1421
I0
aI0
aI0
aI0
aI0
aI0
aI0
aI0
aI0
aI0
aI0
aI0
aI0
aI0
aI0
aI0
asg13
(lp1422
(lp1423
(lp1424
I0
aa(lp1425
I0
aa(lp1426
I0
aa(lp1427
I0
aaa(lp1428
(lp1429
I0
aa(lp1430
I0
aa(lp1431
I10
aa(lp1432
I0
aaa(lp1433
(lp1434
I0
aa(lp1435
I0
aa(lp1436
I10
aa(lp1437
I0
aaa(lp1438
(lp1439
I0
aa(lp1440
I0
aa(lp1441
I0
aa(lp1442
I0
aaasg35
(lp1443
(lp1444
F1
aF0
aF0
aF0
aF0
aF0
aF0
aF0
aF0
aF0
aF0
aF0
aF0
aF0
aF0
aF0
aa(lp1445
F1
aF0
aF0
aF0
aF0
aF0
aF0
aF0
aF0
aF0
aF0
aF0
aF0
aF0
aF0
aF0
aa(lp1446
F1
aF0
aF0
aF0
aF0
aF0
aF0
aF0
aF0
aF0
aF0
aF0
aF0
aF0
aF0
aF0
aa(lp1447
F1
aF0
aF0
aF0
aF0
aF0
aF0
aF0
aF0
aF0
aF0
aF0
aF0
aF0
aF0
aF0
aa(lp1448
F1
aF0
aF0
aF0
aF0
aF0
aF0
aF0
aF0
aF0
aF0
aF0
aF0
aF0
aF0
aF0
aa(lp1449
F1
aF0
aF0
aF0
aF0
aF0
aF0
aF0
aF0
aF0
aF0
aF0
aF0
aF0
aF0
aF0
aa(lp1450
F0
aF0
aF0
aF0
aF0
aF0
aF0
aF0
aF0
aF0
aF1
aF0
aF0
aF0
aF0
aF0
aa(lp1451
F1
aF0
aF0
aF0
aF0
aF0
aF0
aF0
aF0
aF0
aF0
aF0
aF0
aF0
aF0
aF0
aa(lp1452
F1
aF0
aF0
aF0
aF0
aF0
aF0
aF0
aF0
aF0
aF0
aF0
aF0
aF0
aF0
aF0
aa(lp1453
F1
aF0
aF0
aF0
aF0
aF0
aF0
aF0
aF0
aF0
aF0
aF0
aF0
aF0
aF0
aF0
aa(lp1454
F0
aF0
aF0
aF0
aF0
aF0
aF0
aF0
aF0
aF0
aF1
aF0
aF0
aF0
aF0
aF0
aa(lp1455
F1
aF0
aF0
aF0
aF0
aF0
aF0
aF0
aF0
aF0
aF0
aF0
aF0
aF0
aF0
aF0
aa(lp1456
F1
aF0
aF0
aF0
aF0
aF0
aF0
aF0
aF0
aF0
aF0
aF0
aF0
aF0
aF0
aF0
aa(lp1457
F1
aF0
aF0
aF0
aF0
aF0
aF0
aF0
aF0
aF0
aF0
aF0
aF0
aF0
aF0
aF0
aa(lp1458
F1
aF0
aF0
aF0
aF0
aF0
aF0
aF0
aF0
aF0
aF0
aF0
aF0
aF0
aF0
aF0
aa(lp1459
F1
aF0
aF0
aF0
aF0
aF0
aF0
aF0
aF0
aF0
aF0
aF0
aF0
aF0
aF0
aF0
aasg53
g1417
sbsS'A7'
p1460
(iclusterfk.Mantis
MantisState
p1461
(dp1462
g8
I0
sg9
(lp1463
I00
aI00
aI00
aI00
aI00
aI00
aI00
aI00
aI00
aI00
aI00
aI00
aI00
aI00
aI00
aI00
asg11
(lp1464
I0
aI13
aI0
aI0
aI0
aI0
aI0
aI0
aI0
aI0
aI0
aI0
aI0
aI13
aI0
aI0
asg13
(lp1465
(lp1466
(lp1467
I0
aa(lp1468
I10
aI5
aI13
aI15
aa(lp1469
I0
aa(lp1470
I0
aaa(lp1471
(lp1472
I0
aa(lp1473
I0
aa(lp1474
I0
aa(lp1475
I0
aaa(lp1476
(lp1477
I0
aa(lp1478
I0
aa(lp1479
I0
aa(lp1480
I0
aaa(lp1481
(lp1482
I0
aag1468
a(lp1483
I0
aa(lp1484
I0
aaasg35
(lp1485
(lp1486
F1
aF0
aF0
aF0
aF0
aF0
aF0
aF0
aF0
aF0
aF0
aF0
aF0
aF0
aF0
aF0
aa(lp1487
F0
aF0
aF0
aF0
aF0
aF0.25
aF0
aF0
aF0
aF0
aF0.25
aF0
aF0
aF0.25
aF0
aF0.25
aa(lp1488
F1
aF0
aF0
aF0
aF0
aF0
aF0
aF0
aF0
aF0
aF0
aF0
aF0
aF0
aF0
aF0
aa(lp1489
F1
aF0
aF0
aF0
aF0
aF0
aF0
aF0
aF0
aF0
aF0
aF0
aF0
aF0
aF0
aF0
aa(lp1490
F1
aF0
aF0
aF0
aF0
aF0
aF0
aF0
aF0
aF0
aF0
aF0
aF0
aF0
aF0
aF0
aa(lp1491
F1
aF0
aF0
aF0
aF0
aF0
aF0
aF0
aF0
aF0
aF0
aF0
aF0
aF0
aF0
aF0
aa(lp1492
F1
aF0
aF0
aF0
aF0
aF0
aF0
aF0
aF0
aF0
aF0
aF0
aF0
aF0
aF0
aF0
aa(lp1493
F1
aF0
aF0
aF0
aF0
aF0
aF0
aF0
aF0
aF0
aF0
aF0
aF0
aF0
aF0
aF0
aa(lp1494
F1
aF0
aF0
aF0
aF0
aF0
aF0
aF0
aF0
aF0
aF0
aF0
aF0
aF0
aF0
aF0
aa(lp1495
F1
aF0
aF0
aF0
aF0
aF0
aF0
aF0
aF0
aF0
aF0
aF0
aF0
aF0
aF0
aF0
aa(lp1496
F1
aF0
aF0
aF0
aF0
aF0
aF0
aF0
aF0
aF0
aF0
aF0
aF0
aF0
aF0
aF0
aa(lp1497
F1
aF0
aF0
aF0
aF0
aF0
aF0
aF0
aF0
aF0
aF0
aF0
aF0
aF0
aF0
aF0
aa(lp1498
F1
aF0
aF0
aF0
aF0
aF0
aF0
aF0
aF0
aF0
aF0
aF0
aF0
aF0
aF0
aF0
aa(lp1499
F0
aF0
aF0
aF0
aF0
aF0.25
aF0
aF0
aF0
aF0
aF0.25
aF0
aF0
aF0.25
aF0
aF0.25
aa(lp1500
F1
aF0
aF0
aF0
aF0
aF0
aF0
aF0
aF0
aF0
aF0
aF0
aF0
aF0
aF0
aF0
aa(lp1501
F1
aF0
aF0
aF0
aF0
aF0
aF0
aF0
aF0
aF0
aF0
aF0
aF0
aF0
aF0
aF0
aasg53
g1460
sbsS'A6'
p1502
(iclusterfk.Mantis
MantisState
p1503
(dp1504
g8
I0
sg9
(lp1505
I00
aI00
aI00
aI00
aI00
aI00
aI00
aI00
aI00
aI00
aI00
aI00
aI00
aI00
aI00
aI00
asg11
(lp1506
I0
aI0
aI0
aI0
aI0
aI0
aI0
aI0
aI0
aI0
aI0
aI0
aI0
aI0
aI0
aI0
asg13
(lp1507
(lp1508
(lp1509
I0
aa(lp1510
I0
aa(lp1511
I0
aa(lp1512
I0
aaa(lp1513
(lp1514
I0
aa(lp1515
I0
aa(lp1516
I0
aa(lp1517
I0
aaa(lp1518
(lp1519
I0
aa(lp1520
I0
aa(lp1521
I0
aa(lp1522
I0
aaa(lp1523
(lp1524
I0
aa(lp1525
I0
aa(lp1526
I0
aa(lp1527
I0
aaasg35
(lp1528
(lp1529
F1
aF0
aF0
aF0
aF0
aF0
aF0
aF0
aF0
aF0
aF0
aF0
aF0
aF0
aF0
aF0
aa(lp1530
F1
aF0
aF0
aF0
aF0
aF0
aF0
aF0
aF0
aF0
aF0
aF0
aF0
aF0
aF0
aF0
aa(lp1531
F1
aF0
aF0
aF0
aF0
aF0
aF0
aF0
aF0
aF0
aF0
aF0
aF0
aF0
aF0
aF0
aa(lp1532
F1
aF0
aF0
aF0
aF0
aF0
aF0
aF0
aF0
aF0
aF0
aF0
aF0
aF0
aF0
aF0
aa(lp1533
F1
aF0
aF0
aF0
aF0
aF0
aF0
aF0
aF0
aF0
aF0
aF0
aF0
aF0
aF0
aF0
aa(lp1534
F1
aF0
aF0
aF0
aF0
aF0
aF0
aF0
aF0
aF0
aF0
aF0
aF0
aF0
aF0
aF0
aa(lp1535
F1
aF0
aF0
aF0
aF0
aF0
aF0
aF0
aF0
aF0
aF0
aF0
aF0
aF0
aF0
aF0
aa(lp1536
F1
aF0
aF0
aF0
aF0
aF0
aF0
aF0
aF0
aF0
aF0
aF0
aF0
aF0
aF0
aF0
aa(lp1537
F1
aF0
aF0
aF0
aF0
aF0
aF0
aF0
aF0
aF0
aF0
aF0
aF0
aF0
aF0
aF0
aa(lp1538
F1
aF0
aF0
aF0
aF0
aF0
aF0
aF0
aF0
aF0
aF0
aF0
aF0
aF0
aF0
aF0
aa(lp1539
F1
aF0
aF0
aF0
aF0
aF0
aF0
aF0
aF0
aF0
aF0
aF0
aF0
aF0
aF0
aF0
aa(lp1540
F1
aF0
aF0
aF0
aF0
aF0
aF0
aF0
aF0
aF0
aF0
aF0
aF0
aF0
aF0
aF0
aa(lp1541
F1
aF0
aF0
aF0
aF0
aF0
aF0
aF0
aF0
aF0
aF0
aF0
aF0
aF0
aF0
aF0
aa(lp1542
F1
aF0
aF0
aF0
aF0
aF0
aF0
aF0
aF0
aF0
aF0
aF0
aF0
aF0
aF0
aF0
aa(lp1543
F1
aF0
aF0
aF0
aF0
aF0
aF0
aF0
aF0
aF0
aF0
aF0
aF0
aF0
aF0
aF0
aa(lp1544
F1
aF0
aF0
aF0
aF0
aF0
aF0
aF0
aF0
aF0
aF0
aF0
aF0
aF0
aF0
aF0
aasg53
g1502
sbsS'A9'
p1545
(iclusterfk.Mantis
MantisState
p1546
(dp1547
g8
I0
sg9
(lp1548
I00
aI00
aI00
aI00
aI00
aI00
aI00
aI00
aI00
aI00
aI00
aI00
aI00
aI00
aI00
aI00
asg11
(lp1549
I0
aI0
aI0
aI0
aI0
aI0
aI0
aI0
aI0
aI0
aI0
aI0
aI0
aI0
aI0
aI0
asg13
(lp1550
(lp1551
(lp1552
I10
aa(lp1553
I0
aa(lp1554
I0
aa(lp1555
I0
aaa(lp1556
(lp1557
I10
aa(lp1558
I0
aa(lp1559
I0
aa(lp1560
I0
aaa(lp1561
(lp1562
I0
aa(lp1563
I0
aa(lp1564
I0
aa(lp1565
I0
aaa(lp1566
(lp1567
I0
aa(lp1568
I0
aa(lp1569
I0
aa(lp1570
I0
aaasg35
(lp1571
(lp1572
F0
aF0
aF0
aF0
aF0
aF0
aF0
aF0
aF0
aF0
aF1
aF0
aF0
aF0
aF0
aF0
aa(lp1573
F1
aF0
aF0
aF0
aF0
aF0
aF0
aF0
aF0
aF0
aF0
aF0
aF0
aF0
aF0
aF0
aa(lp1574
F1
aF0
aF0
aF0
aF0
aF0
aF0
aF0
aF0
aF0
aF0
aF0
aF0
aF0
aF0
aF0
aa(lp1575
F1
aF0
aF0
aF0
aF0
aF0
aF0
aF0
aF0
aF0
aF0
aF0
aF0
aF0
aF0
aF0
aa(lp1576
F0
aF0
aF0
aF0
aF0
aF0
aF0
aF0
aF0
aF0
aF1
aF0
aF0
aF0
aF0
aF0
aa(lp1577
F1
aF0
aF0
aF0
aF0
aF0
aF0
aF0
aF0
aF0
aF0
aF0
aF0
aF0
aF0
aF0
aa(lp1578
F1
aF0
aF0
aF0
aF0
aF0
aF0
aF0
aF0
aF0
aF0
aF0
aF0
aF0
aF0
aF0
aa(lp1579
F1
aF0
aF0
aF0
aF0
aF0
aF0
aF0
aF0
aF0
aF0
aF0
aF0
aF0
aF0
aF0
aa(lp1580
F1
aF0
aF0
aF0
aF0
aF0
aF0
aF0
aF0
aF0
aF0
aF0
aF0
aF0
aF0
aF0
aa(lp1581
F1
aF0
aF0
aF0
aF0
aF0
aF0
aF0
aF0
aF0
aF0
aF0
aF0
aF0
aF0
aF0
aa(lp1582
F1
aF0
aF0
aF0
aF0
aF0
aF0
aF0
aF0
aF0
aF0
aF0
aF0
aF0
aF0
aF0
aa(lp1583
F1
aF0
aF0
aF0
aF0
aF0
aF0
aF0
aF0
aF0
aF0
aF0
aF0
aF0
aF0
aF0
aa(lp1584
F1
aF0
aF0
aF0
aF0
aF0
aF0
aF0
aF0
aF0
aF0
aF0
aF0
aF0
aF0
aF0
aa(lp1585
F1
aF0
aF0
aF0
aF0
aF0
aF0
aF0
aF0
aF0
aF0
aF0
aF0
aF0
aF0
aF0
aa(lp1586
F1
aF0
aF0
aF0
aF0
aF0
aF0
aF0
aF0
aF0
aF0
aF0
aF0
aF0
aF0
aF0
aa(lp1587
F1
aF0
aF0
aF0
aF0
aF0
aF0
aF0
aF0
aF0
aF0
aF0
aF0
aF0
aF0
aF0
aasg53
g1545
sbsS'A8'
p1588
(iclusterfk.Mantis
MantisState
p1589
(dp1590
g8
I0
sg9
(lp1591
I00
aI00
aI00
aI00
aI00
aI00
aI00
aI00
aI00
aI00
aI00
aI00
aI00
aI00
aI00
aI00
asg11
(lp1592
I0
aI0
aI0
aI0
aI0
aI0
aI0
aI0
aI0
aI0
aI0
aI0
aI0
aI0
aI0
aI0
asg13
(lp1593
(lp1594
(lp1595
I0
aa(lp1596
I0
aa(lp1597
I0
aa(lp1598
I0
aaa(lp1599
(lp1600
I0
aa(lp1601
I0
aa(lp1602
I0
aa(lp1603
I0
aaa(lp1604
(lp1605
I0
aa(lp1606
I0
aa(lp1607
I0
aa(lp1608
I0
aaa(lp1609
(lp1610
I0
aa(lp1611
I0
aa(lp1612
I0
aa(lp1613
I0
aaasg35
(lp1614
(lp1615
F1
aF0
aF0
aF0
aF0
aF0
aF0
aF0
aF0
aF0
aF0
aF0
aF0
aF0
aF0
aF0
aa(lp1616
F1
aF0
aF0
aF0
aF0
aF0
aF0
aF0
aF0
aF0
aF0
aF0
aF0
aF0
aF0
aF0
aa(lp1617
F1
aF0
aF0
aF0
aF0
aF0
aF0
aF0
aF0
aF0
aF0
aF0
aF0
aF0
aF0
aF0
aa(lp1618
F1
aF0
aF0
aF0
aF0
aF0
aF0
aF0
aF0
aF0
aF0
aF0
aF0
aF0
aF0
aF0
aa(lp1619
F1
aF0
aF0
aF0
aF0
aF0
aF0
aF0
aF0
aF0
aF0
aF0
aF0
aF0
aF0
aF0
aa(lp1620
F1
aF0
aF0
aF0
aF0
aF0
aF0
aF0
aF0
aF0
aF0
aF0
aF0
aF0
aF0
aF0
aa(lp1621
F1
aF0
aF0
aF0
aF0
aF0
aF0
aF0
aF0
aF0
aF0
aF0
aF0
aF0
aF0
aF0
aa(lp1622
F1
aF0
aF0
aF0
aF0
aF0
aF0
aF0
aF0
aF0
aF0
aF0
aF0
aF0
aF0
aF0
aa(lp1623
F1
aF0
aF0
aF0
aF0
aF0
aF0
aF0
aF0
aF0
aF0
aF0
aF0
aF0
aF0
aF0
aa(lp1624
F1
aF0
aF0
aF0
aF0
aF0
aF0
aF0
aF0
aF0
aF0
aF0
aF0
aF0
aF0
aF0
aa(lp1625
F1
aF0
aF0
aF0
aF0
aF0
aF0
aF0
aF0
aF0
aF0
aF0
aF0
aF0
aF0
aF0
aa(lp1626
F1
aF0
aF0
aF0
aF0
aF0
aF0
aF0
aF0
aF0
aF0
aF0
aF0
aF0
aF0
aF0
aa(lp1627
F1
aF0
aF0
aF0
aF0
aF0
aF0
aF0
aF0
aF0
aF0
aF0
aF0
aF0
aF0
aF0
aa(lp1628
F1
aF0
aF0
aF0
aF0
aF0
aF0
aF0
aF0
aF0
aF0
aF0
aF0
aF0
aF0
aF0
aa(lp1629
F1
aF0
aF0
aF0
aF0
aF0
aF0
aF0
aF0
aF0
aF0
aF0
aF0
aF0
aF0
aF0
aa(lp1630
F1
aF0
aF0
aF0
aF0
aF0
aF0
aF0
aF0
aF0
aF0
aF0
aF0
aF0
aF0
aF0
aasg53
g1588
sbsS'P8'
p1631
(iclusterfk.Mantis
MantisState
p1632
(dp1633
g8
I0
sg9
(lp1634
I00
aI00
aI00
aI00
aI00
aI00
aI00
aI00
aI00
aI00
aI00
aI00
aI00
aI00
aI00
aI00
asg11
(lp1635
I0
aI0
aI0
aI0
aI0
aI0
aI0
aI0
aI0
aI0
aI0
aI0
aI0
aI0
aI0
aI0
asg13
(lp1636
(lp1637
g694
ag700
ag711
ag706
aa(lp1638
(lp1639
I10
aag704
ag696
ag702
aa(lp1640
g707
ag710
ag699
a(lp1641
I10
aaa(lp1642
g701
ag697
ag705
ag709
aasg35
(lp1643
(lp1644
F1
aF0
aF0
aF0
aF0
aF0
aF0
aF0
aF0
aF0
aF0
aF0
aF0
aF0
aF0
aF0
aa(lp1645
F1
aF0
aF0
aF0
aF0
aF0
aF0
aF0
aF0
aF0
aF0
aF0
aF0
aF0
aF0
aF0
aa(lp1646
F1
aF0
aF0
aF0
aF0
aF0
aF0
aF0
aF0
aF0
aF0
aF0
aF0
aF0
aF0
aF0
aa(lp1647
F1
aF0
aF0
aF0
aF0
aF0
aF0
aF0
aF0
aF0
aF0
aF0
aF0
aF0
aF0
aF0
aa(lp1648
F0
aF0
aF0
aF0
aF0
aF0
aF0
aF0
aF0
aF0
aF1
aF0
aF0
aF0
aF0
aF0
aa(lp1649
F1
aF0
aF0
aF0
aF0
aF0
aF0
aF0
aF0
aF0
aF0
aF0
aF0
aF0
aF0
aF0
aa(lp1650
F1
aF0
aF0
aF0
aF0
aF0
aF0
aF0
aF0
aF0
aF0
aF0
aF0
aF0
aF0
aF0
aa(lp1651
F1
aF0
aF0
aF0
aF0
aF0
aF0
aF0
aF0
aF0
aF0
aF0
aF0
aF0
aF0
aF0
aa(lp1652
F1
aF0
aF0
aF0
aF0
aF0
aF0
aF0
aF0
aF0
aF0
aF0
aF0
aF0
aF0
aF0
aa(lp1653
F1
aF0
aF0
aF0
aF0
aF0
aF0
aF0
aF0
aF0
aF0
aF0
aF0
aF0
aF0
aF0
aa(lp1654
F1
aF0
aF0
aF0
aF0
aF0
aF0
aF0
aF0
aF0
aF0
aF0
aF0
aF0
aF0
aF0
aa(lp1655
F0
aF0
aF0
aF0
aF0
aF0
aF0
aF0
aF0
aF0
aF1
aF0
aF0
aF0
aF0
aF0
aa(lp1656
F1
aF0
aF0
aF0
aF0
aF0
aF0
aF0
aF0
aF0
aF0
aF0
aF0
aF0
aF0
aF0
aa(lp1657
F1
aF0
aF0
aF0
aF0
aF0
aF0
aF0
aF0
aF0
aF0
aF0
aF0
aF0
aF0
aF0
aa(lp1658
F1
aF0
aF0
aF0
aF0
aF0
aF0
aF0
aF0
aF0
aF0
aF0
aF0
aF0
aF0
aF0
aa(lp1659
F1
aF0
aF0
aF0
aF0
aF0
aF0
aF0
aF0
aF0
aF0
aF0
aF0
aF0
aF0
aF0
aasg53
g1631
sbsS'P2'
p1660
(iclusterfk.Mantis
MantisState
p1661
(dp1662
g8
I0
sg9
(lp1663
I00
aI00
aI00
aI00
aI00
aI00
aI00
aI00
aI00
aI00
aI00
aI00
aI00
aI00
aI00
aI00
asg11
(lp1664
I3
aI0
aI0
aI0
aI0
aI3
aI4
aI0
aI0
aI0
aI3
aI0
aI4
aI0
aI0
aI0
asg13
(lp1665
(lp1666
(lp1667
I10
aI5
aI13
aI15
aag618
a(lp1668
I10
aag622
aa(lp1669
g625
a(lp1670
I10
aI5
aI13
aI15
aa(lp1671
I10
aI13
aI5
aI15
aa(lp1672
I10
aaa(lp1673
(lp1674
I10
aag626
a(lp1675
I10
aI5
aI13
aI15
aag614
aa(lp1676
(lp1677
I10
aI13
aI5
aI15
aag616
ag621
ag624
aasg35
(lp1678
g628
ag633
ag643
ag638
ag641
ag636
ag630
ag635
ag639
ag642
ag632
ag629
ag634
ag631
ag637
ag640
asg53
g1660
sbsS'P3'
p1679
(iclusterfk.Mantis
MantisState
p1680
(dp1681
g8
I0
sg9
(lp1682
I00
aI00
aI00
aI00
aI00
aI00
aI00
aI00
aI00
aI00
aI00
aI00
aI00
aI00
aI00
aI00
asg11
(lp1683
I0
aI0
aI0
aI5
aI0
aI0
aI0
aI0
aI0
aI0
aI0
aI0
aI5
aI0
aI0
aI0
asg13
(lp1684
(lp1685
g571
ag577
ag588
a(lp1686
I10
aI13
aI5
aI15
aaa(lp1687
g586
ag581
ag573
ag579
aa(lp1688
g583
ag587
ag576
ag572
aa(lp1689
(lp1690
I10
aI13
aI5
aI15
aag574
ag582
ag585
aasg35
(lp1691
g590
ag595
ag605
ag600
ag603
ag598
ag592
ag597
ag601
ag604
ag594
ag591
ag596
ag593
ag599
ag602
asg53
g1679
sbsS'P1'
p1692
(iclusterfk.Mantis
MantisState
p1693
(dp1694
g8
I0
sg9
(lp1695
I00
aI00
aI00
aI00
aI00
aI00
aI00
aI00
aI00
aI00
aI00
aI00
aI00
aI00
aI00
aI00
asg11
(lp1696
I0
aI0
aI2
aI0
aI0
aI0
aI1
aI0
aI2
aI0
aI0
aI0
aI0
aI2
aI0
aI0
asg13
(lp1697
(lp1698
g532
ag538
a(lp1699
I10
aI13
aI5
aI15
aag543
aa(lp1700
(lp1701
I10
aag542
a(lp1702
I10
aI13
aI5
aI15
aag540
aa(lp1703
(lp1704
I10
aI13
aI5
aI15
aag546
a(lp1705
I10
aa(lp1706
I10
aaa(lp1707
g539
a(lp1708
I10
aI13
aI5
aI15
aa(lp1709
I10
aag545
aasg35
(lp1710
g548
ag553
ag563
ag558
ag561
ag556
ag550
ag555
ag559
ag562
ag552
ag549
ag554
ag551
ag557
ag560
asg53
g1692
sbsS'P6'
p1711
(iclusterfk.Mantis
MantisState
p1712
(dp1713
g8
I0
sg9
(lp1714
I00
aI00
aI00
aI00
aI00
aI00
aI00
aI00
aI00
aI00
aI00
aI00
aI00
aI00
aI00
aI00
asg11
(lp1715
I0
aI0
aI0
aI0
aI0
aI0
aI0
aI0
aI0
aI0
aI0
aI0
aI0
aI0
aI0
aI0
asg13
(lp1716
(lp1717
g490
ag496
ag507
ag502
aa(lp1718
(lp1719
I10
aag500
ag492
ag498
aa(lp1720
g503
ag506
ag495
a(lp1721
I10
aaa(lp1722
g497
ag493
ag501
ag505
aasg35
(lp1723
g509
ag514
ag524
ag519
ag522
ag517
ag511
ag516
ag520
ag523
ag513
ag510
ag515
ag512
ag518
ag521
asg53
g1711
sbsS'P13'
p1724
(iclusterfk.Mantis
MantisState
p1725
(dp1726
g8
I0
sg9
(lp1727
I00
aI00
aI00
aI00
aI00
aI00
aI00
aI00
aI00
aI00
aI00
aI00
aI00
aI00
aI00
aI00
asg11
(lp1728
I0
aI0
aI12
aI0
aI10
aI0
aI11
aI0
aI12
aI0
aI9
aI10
aI0
aI12
aI10
aI0
asg13
(lp1729
(lp1730
(lp1731
I0
aa(lp1732
I0
aa(lp1733
I10
aI13
aI5
aI15
aa(lp1734
I0
aaa(lp1735
(lp1736
I1
aI3
aI4
aI5
aI6
aI7
aI9
aI10
aI11
aI12
aI13
aI14
aI15
aa(lp1737
I0
aa(lp1738
I10
aI13
aI5
aI15
aa(lp1739
I0
aaa(lp1740
(lp1741
I10
aI13
aI5
aI15
aa(lp1742
I0
aa(lp1743
I10
aI5
aI13
aI15
aa(lp1744
I1
aI3
aI4
aI5
aI6
aI7
aI9
aI10
aI11
aI12
aI13
aI14
aI15
aaa(lp1745
(lp1746
I0
aa(lp1747
I10
aI13
aI5
aI15
aa(lp1748
I1
aI3
aI4
aI5
aI6
aI7
aI9
aI10
aI11
aI12
aI13
aI14
aI15
aa(lp1749
I0
aaasg35
(lp1750
(lp1751
F1
aF0
aF0
aF0
aF0
aF0
aF0
aF0
aF0
aF0
aF0
aF0
aF0
aF0
aF0
aF0
aa(lp1752
F1
aF0
aF0
aF0
aF0
aF0
aF0
aF0
aF0
aF0
aF0
aF0
aF0
aF0
aF0
aF0
aa(lp1753
F0
aF0
aF0
aF0
aF0
aF0.25
aF0
aF0
aF0
aF0
aF0.25
aF0
aF0
aF0.25
aF0
aF0.25
aa(lp1754
F1
aF0
aF0
aF0
aF0
aF0
aF0
aF0
aF0
aF0
aF0
aF0
aF0
aF0
aF0
aF0
aa(lp1755
F0
aF0.015625
aF0
aF0.046875
aF0.015625
aF0.125
aF0.046875
aF0.0625
aF0
aF0.015625
aF0.25
aF0.046875
aF0.015625
aF0.125
aF0.046875
aF0.1875
aa(lp1756
F1
aF0
aF0
aF0
aF0
aF0
aF0
aF0
aF0
aF0
aF0
aF0
aF0
aF0
aF0
aF0
aa(lp1757
F0
aF0
aF0
aF0
aF0
aF0.076923076923076927
aF0
aF0
aF0
aF0
aF0.61538461538461542
aF0
aF0
aF0.076923076923076927
aF0
aF0.23076923076923073
aa(lp1758
F1
aF0
aF0
aF0
aF0
aF0
aF0
aF0
aF0
aF0
aF0
aF0
aF0
aF0
aF0
aF0
aa(lp1759
F0
aF0
aF0
aF0
aF0
aF0.25
aF0
aF0
aF0
aF0
aF0.25
aF0
aF0
aF0.25
aF0
aF0.25
aa(lp1760
F1
aF0
aF0
aF0
aF0
aF0
aF0
aF0
aF0
aF0
aF0
aF0
aF0
aF0
aF0
aF0
aa(lp1761
F0
aF0
aF0
aF0
aF0
aF0.076923076923076927
aF0
aF0
aF0
aF0
aF0.61538461538461542
aF0
aF0
aF0.076923076923076927
aF0
aF0.23076923076923073
aa(lp1762
F0
aF0.015625
aF0
aF0.046875
aF0.015625
aF0.125
aF0.046875
aF0.0625
aF0
aF0.015625
aF0.25
aF0.046875
aF0.015625
aF0.125
aF0.046875
aF0.1875
aa(lp1763
F1
aF0
aF0
aF0
aF0
aF0
aF0
aF0
aF0
aF0
aF0
aF0
aF0
aF0
aF0
aF0
aa(lp1764
F0
aF0
aF0
aF0
aF0
aF0.25
aF0
aF0
aF0
aF0
aF0.25
aF0
aF0
aF0.25
aF0
aF0.25
aa(lp1765
F0
aF0.015625
aF0
aF0.046875
aF0.015625
aF0.125
aF0.046875
aF0.0625
aF0
aF0.015625
aF0.25
aF0.046875
aF0.015625
aF0.125
aF0.046875
aF0.1875
aa(lp1766
F1
aF0
aF0
aF0
aF0
aF0
aF0
aF0
aF0
aF0
aF0
aF0
aF0
aF0
aF0
aF0
aasg53
g1724
sbsS'P4'
p1767
(iclusterfk.Mantis
MantisState
p1768
(dp1769
g8
I0
sg9
(lp1770
I00
aI00
aI00
aI00
aI00
aI00
aI00
aI00
aI00
aI00
aI00
aI00
aI00
aI00
aI00
aI00
asg11
(lp1771
I0
aI0
aI0
aI0
aI0
aI0
aI0
aI0
aI0
aI0
aI0
aI0
aI0
aI0
aI0
aI0
asg13
(lp1772
(lp1773
(lp1774
I10
aag453
ag465
ag459
aa(lp1775
g463
ag457
ag450
ag455
aa(lp1776
g460
ag464
a(lp1777
I10
aag449
aa(lp1778
g454
ag451
ag458
ag462
aasg35
(lp1779
g467
ag472
ag482
ag477
ag480
ag475
ag469
ag474
ag478
ag481
ag471
ag468
ag473
ag470
ag476
ag479
asg53
g1767
sbsS'P5'
p1780
(iclusterfk.Mantis
MantisState
p1781
(dp1782
g8
I0
sg9
(lp1783
I00
aI00
aI00
aI00
aI00
aI00
aI00
aI00
aI00
aI00
aI00
aI00
aI00
aI00
aI00
aI00
asg11
(lp1784
I0
aI0
aI0
aI0
aI0
aI0
aI0
aI0
aI0
aI0
aI0
aI0
aI0
aI0
aI0
aI0
asg13
(lp1785
(lp1786
g405
ag411
ag423
ag417
aa(lp1787
g421
ag415
ag407
ag413
aa(lp1788
g418
ag422
ag410
ag406
aa(lp1789
g412
ag408
ag416
ag420
aasg35
(lp1790
g425
ag430
ag440
ag435
ag438
ag433
ag427
ag432
ag436
ag439
ag429
ag426
ag431
ag428
ag434
ag437
asg53
g1780
sbsS'T6'
p1791
(iclusterfk.Mantis
MantisState
p1792
(dp1793
g8
I0
sg9
(lp1794
I00
aI00
aI00
aI00
aI00
aI00
aI00
aI00
aI00
aI00
aI00
aI00
aI00
aI00
aI00
aI00
asg11
(lp1795
I0
aI0
aI0
aI0
aI0
aI0
aI0
aI0
aI0
aI0
aI0
aI0
aI0
aI0
aI0
aI0
asg13
(lp1796
(lp1797
(lp1798
I0
aa(lp1799
I0
aa(lp1800
I0
aa(lp1801
I0
aaa(lp1802
(lp1803
I10
aa(lp1804
I0
aa(lp1805
I0
aa(lp1806
I0
aaa(lp1807
(lp1808
I0
aa(lp1809
I0
aa(lp1810
I0
aa(lp1811
I10
aaa(lp1812
(lp1813
I0
aa(lp1814
I0
aa(lp1815
I0
aa(lp1816
I0
aaasg35
(lp1817
(lp1818
F0
aF0
aF0
aF0
aF0
aF0
aF0
aF0
aF0
aF0
aF0
aF0
aF0
aF0
aF0
aF0
aa(lp1819
F0
aF0
aF0
aF0
aF0
aF0
aF0
aF0
aF0
aF0
aF0
aF0
aF0
aF0
aF0
aF0
aa(lp1820
F0
aF0
aF0
aF0
aF0
aF0
aF0
aF0
aF0
aF0
aF0
aF0
aF0
aF0
aF0
aF0
aa(lp1821
F0
aF0
aF0
aF0
aF0
aF0
aF0
aF0
aF0
aF0
aF0
aF0
aF0
aF0
aF0
aF0
aa(lp1822
F0
aF0
aF0
aF0
aF0
aF0
aF0
aF0
aF0
aF0
aF0
aF0
aF0
aF0
aF0
aF0
aa(lp1823
F0
aF0
aF0
aF0
aF0
aF0
aF0
aF0
aF0
aF0
aF0
aF0
aF0
aF0
aF0
aF0
aa(lp1824
F0
aF0
aF0
aF0
aF0
aF0
aF0
aF0
aF0
aF0
aF0
aF0
aF0
aF0
aF0
aF0
aa(lp1825
F0
aF0
aF0
aF0
aF0
aF0
aF0
aF0
aF0
aF0
aF0
aF0
aF0
aF0
aF0
aF0
aa(lp1826
F0
aF0
aF0
aF0
aF0
aF0
aF0
aF0
aF0
aF0
aF0
aF0
aF0
aF0
aF0
aF0
aa(lp1827
F0
aF0
aF0
aF0
aF0
aF0
aF0
aF0
aF0
aF0
aF0
aF0
aF0
aF0
aF0
aF0
aa(lp1828
F0
aF0
aF0
aF0
aF0
aF0
aF0
aF0
aF0
aF0
aF0
aF0
aF0
aF0
aF0
aF0
aa(lp1829
F0
aF0
aF0
aF0
aF0
aF0
aF0
aF0
aF0
aF0
aF0
aF0
aF0
aF0
aF0
aF0
aa(lp1830
F0
aF0
aF0
aF0
aF0
aF0
aF0
aF0
aF0
aF0
aF0
aF0
aF0
aF0
aF0
aF0
aa(lp1831
F0
aF0
aF0
aF0
aF0
aF0
aF0
aF0
aF0
aF0
aF0
aF0
aF0
aF0
aF0
aF0
aa(lp1832
F0
aF0
aF0
aF0
aF0
aF0
aF0
aF0
aF0
aF0
aF0
aF0
aF0
aF0
aF0
aF0
aa(lp1833
F0
aF0
aF0
aF0
aF0
aF0
aF0
aF0
aF0
aF0
aF0
aF0
aF0
aF0
aF0
aF0
aasg53
g1791
sbsS'T4'
p1834
(iclusterfk.Mantis
MantisState
p1835
(dp1836
g8
I0
sg9
(lp1837
I00
aI00
aI00
aI00
aI00
aI00
aI00
aI00
aI00
aI00
aI00
aI00
aI00
aI00
aI00
aI00
asg11
(lp1838
I0
aI0
aI0
aI0
aI0
aI0
aI0
aI0
aI0
aI0
aI0
aI0
aI0
aI0
aI0
aI0
asg13
(lp1839
(lp1840
(lp1841
I10
aa(lp1842
I0
aa(lp1843
I0
aa(lp1844
I0
aaa(lp1845
(lp1846
I0
aa(lp1847
I0
aa(lp1848
I10
aa(lp1849
I0
aaa(lp1850
(lp1851
I0
aa(lp1852
I0
aa(lp1853
I0
aa(lp1854
I0
aaa(lp1855
(lp1856
I0
aa(lp1857
I0
aa(lp1858
I0
aa(lp1859
I0
aaasg35
(lp1860
(lp1861
F0
aF0
aF0
aF0
aF0
aF0
aF0
aF0
aF0
aF0
aF0
aF0
aF0
aF0
aF0
aF0
aa(lp1862
F0
aF0
aF0
aF0
aF0
aF0
aF0
aF0
aF0
aF0
aF0
aF0
aF0
aF0
aF0
aF0
aa(lp1863
F0
aF0
aF0
aF0
aF0
aF0
aF0
aF0
aF0
aF0
aF0
aF0
aF0
aF0
aF0
aF0
aa(lp1864
F0
aF0
aF0
aF0
aF0
aF0
aF0
aF0
aF0
aF0
aF0
aF0
aF0
aF0
aF0
aF0
aa(lp1865
F0
aF0
aF0
aF0
aF0
aF0
aF0
aF0
aF0
aF0
aF0
aF0
aF0
aF0
aF0
aF0
aa(lp1866
F0
aF0
aF0
aF0
aF0
aF0
aF0
aF0
aF0
aF0
aF0
aF0
aF0
aF0
aF0
aF0
aa(lp1867
F0
aF0
aF0
aF0
aF0
aF0
aF0
aF0
aF0
aF0
aF0
aF0
aF0
aF0
aF0
aF0
aa(lp1868
F0
aF0
aF0
aF0
aF0
aF0
aF0
aF0
aF0
aF0
aF0
aF0
aF0
aF0
aF0
aF0
aa(lp1869
F0
aF0
aF0
aF0
aF0
aF0
aF0
aF0
aF0
aF0
aF0
aF0
aF0
aF0
aF0
aF0
aa(lp1870
F0
aF0
aF0
aF0
aF0
aF0
aF0
aF0
aF0
aF0
aF0
aF0
aF0
aF0
aF0
aF0
aa(lp1871
F0
aF0
aF0
aF0
aF0
aF0
aF0
aF0
aF0
aF0
aF0
aF0
aF0
aF0
aF0
aF0
aa(lp1872
F0
aF0
aF0
aF0
aF0
aF0
aF0
aF0
aF0
aF0
aF0
aF0
aF0
aF0
aF0
aF0
aa(lp1873
F0
aF0
aF0
aF0
aF0
aF0
aF0
aF0
aF0
aF0
aF0
aF0
aF0
aF0
aF0
aF0
aa(lp1874
F0
aF0
aF0
aF0
aF0
aF0
aF0
aF0
aF0
aF0
aF0
aF0
aF0
aF0
aF0
aF0
aa(lp1875
F0
aF0
aF0
aF0
aF0
aF0
aF0
aF0
aF0
aF0
aF0
aF0
aF0
aF0
aF0
aF0
aa(lp1876
F0
aF0
aF0
aF0
aF0
aF0
aF0
aF0
aF0
aF0
aF0
aF0
aF0
aF0
aF0
aF0
aasg53
g1834
sbsS'T5'
p1877
(iclusterfk.Mantis
MantisState
p1878
(dp1879
g8
I0
sg9
(lp1880
I00
aI00
aI00
aI00
aI00
aI00
aI00
aI00
aI00
aI00
aI00
aI00
aI00
aI00
aI00
aI00
asg11
(lp1881
I0
aI0
aI0
aI0
aI0
aI0
aI0
aI0
aI0
aI0
aI0
aI0
aI0
aI0
aI0
aI0
asg13
(lp1882
(lp1883
g1803
ag1804
ag1805
ag1806
aa(lp1884
g1811
ag1799
ag1798
ag1808
aa(lp1885
g1813
ag1814
ag1815
ag1816
aa(lp1886
g1809
ag1810
ag1800
ag1801
aasg35
(lp1887
(lp1888
F0
aF0
aF0
aF0
aF0
aF0
aF0
aF0
aF0
aF0
aF0
aF0
aF0
aF0
aF0
aF0
aa(lp1889
F0
aF0
aF0
aF0
aF0
aF0
aF0
aF0
aF0
aF0
aF0
aF0
aF0
aF0
aF0
aF0
aa(lp1890
F0
aF0
aF0
aF0
aF0
aF0
aF0
aF0
aF0
aF0
aF0
aF0
aF0
aF0
aF0
aF0
aa(lp1891
F0
aF0
aF0
aF0
aF0
aF0
aF0
aF0
aF0
aF0
aF0
aF0
aF0
aF0
aF0
aF0
aa(lp1892
F0
aF0
aF0
aF0
aF0
aF0
aF0
aF0
aF0
aF0
aF0
aF0
aF0
aF0
aF0
aF0
aa(lp1893
F0
aF0
aF0
aF0
aF0
aF0
aF0
aF0
aF0
aF0
aF0
aF0
aF0
aF0
aF0
aF0
aa(lp1894
F0
aF0
aF0
aF0
aF0
aF0
aF0
aF0
aF0
aF0
aF0
aF0
aF0
aF0
aF0
aF0
aa(lp1895
F0
aF0
aF0
aF0
aF0
aF0
aF0
aF0
aF0
aF0
aF0
aF0
aF0
aF0
aF0
aF0
aa(lp1896
F0
aF0
aF0
aF0
aF0
aF0
aF0
aF0
aF0
aF0
aF0
aF0
aF0
aF0
aF0
aF0
aa(lp1897
F0
aF0
aF0
aF0
aF0
aF0
aF0
aF0
aF0
aF0
aF0
aF0
aF0
aF0
aF0
aF0
aa(lp1898
F0
aF0
aF0
aF0
aF0
aF0
aF0
aF0
aF0
aF0
aF0
aF0
aF0
aF0
aF0
aF0
aa(lp1899
F0
aF0
aF0
aF0
aF0
aF0
aF0
aF0
aF0
aF0
aF0
aF0
aF0
aF0
aF0
aF0
aa(lp1900
F0
aF0
aF0
aF0
aF0
aF0
aF0
aF0
aF0
aF0
aF0
aF0
aF0
aF0
aF0
aF0
aa(lp1901
F0
aF0
aF0
aF0
aF0
aF0
aF0
aF0
aF0
aF0
aF0
aF0
aF0
aF0
aF0
aF0
aa(lp1902
F0
aF0
aF0
aF0
aF0
aF0
aF0
aF0
aF0
aF0
aF0
aF0
aF0
aF0
aF0
aF0
aa(lp1903
F0
aF0
aF0
aF0
aF0
aF0
aF0
aF0
aF0
aF0
aF0
aF0
aF0
aF0
aF0
aF0
aasg53
g1877
sbsS'T2'
p1904
(iclusterfk.Mantis
MantisState
p1905
(dp1906
g8
I0
sg9
(lp1907
I00
aI00
aI00
aI00
aI00
aI00
aI00
aI00
aI00
aI00
aI00
aI00
aI00
aI00
aI00
aI00
asg11
(lp1908
I0
aI0
aI0
aI0
aI0
aI0
aI0
aI0
aI0
aI0
aI0
aI0
aI0
aI0
aI0
aI0
asg13
(lp1909
(lp1910
(lp1911
I0
aa(lp1912
I0
aa(lp1913
I10
aa(lp1914
I0
aaa(lp1915
(lp1916
I0
aa(lp1917
I0
aa(lp1918
I0
aa(lp1919
I0
aaa(lp1920
(lp1921
I0
aa(lp1922
I0
aa(lp1923
I0
aa(lp1924
I0
aaa(lp1925
(lp1926
I0
aa(lp1927
I0
aa(lp1928
I10
aa(lp1929
I0
aaasg35
(lp1930
(lp1931
F0
aF0
aF0
aF0
aF0
aF0
aF0
aF0
aF0
aF0
aF0
aF0
aF0
aF0
aF0
aF0
aa(lp1932
F0
aF0
aF0
aF0
aF0
aF0
aF0
aF0
aF0
aF0
aF0
aF0
aF0
aF0
aF0
aF0
aa(lp1933
F0
aF0
aF0
aF0
aF0
aF0
aF0
aF0
aF0
aF0
aF0
aF0
aF0
aF0
aF0
aF0
aa(lp1934
F0
aF0
aF0
aF0
aF0
aF0
aF0
aF0
aF0
aF0
aF0
aF0
aF0
aF0
aF0
aF0
aa(lp1935
F0
aF0
aF0
aF0
aF0
aF0
aF0
aF0
aF0
aF0
aF0
aF0
aF0
aF0
aF0
aF0
aa(lp1936
F0
aF0
aF0
aF0
aF0
aF0
aF0
aF0
aF0
aF0
aF0
aF0
aF0
aF0
aF0
aF0
aa(lp1937
F0
aF0
aF0
aF0
aF0
aF0
aF0
aF0
aF0
aF0
aF0
aF0
aF0
aF0
aF0
aF0
aa(lp1938
F0
aF0
aF0
aF0
aF0
aF0
aF0
aF0
aF0
aF0
aF0
aF0
aF0
aF0
aF0
aF0
aa(lp1939
F0
aF0
aF0
aF0
aF0
aF0
aF0
aF0
aF0
aF0
aF0
aF0
aF0
aF0
aF0
aF0
aa(lp1940
F0
aF0
aF0
aF0
aF0
aF0
aF0
aF0
aF0
aF0
aF0
aF0
aF0
aF0
aF0
aF0
aa(lp1941
F0
aF0
aF0
aF0
aF0
aF0
aF0
aF0
aF0
aF0
aF0
aF0
aF0
aF0
aF0
aF0
aa(lp1942
F0
aF0
aF0
aF0
aF0
aF0
aF0
aF0
aF0
aF0
aF0
aF0
aF0
aF0
aF0
aF0
aa(lp1943
F0
aF0
aF0
aF0
aF0
aF0
aF0
aF0
aF0
aF0
aF0
aF0
aF0
aF0
aF0
aF0
aa(lp1944
F0
aF0
aF0
aF0
aF0
aF0
aF0
aF0
aF0
aF0
aF0
aF0
aF0
aF0
aF0
aF0
aa(lp1945
F0
aF0
aF0
aF0
aF0
aF0
aF0
aF0
aF0
aF0
aF0
aF0
aF0
aF0
aF0
aF0
aa(lp1946
F0
aF0
aF0
aF0
aF0
aF0
aF0
aF0
aF0
aF0
aF0
aF0
aF0
aF0
aF0
aF0
aasg53
g1904
sbsS'T3'
p1947
(iclusterfk.Mantis
MantisState
p1948
(dp1949
g8
I0
sg9
(lp1950
I00
aI00
aI00
aI00
aI00
aI00
aI00
aI00
aI00
aI00
aI00
aI00
aI00
aI00
aI00
aI00
asg11
(lp1951
I0
aI0
aI0
aI0
aI0
aI0
aI0
aI0
aI0
aI0
aI0
aI0
aI0
aI0
aI0
aI0
asg13
(lp1952
(lp1953
(lp1954
I0
aa(lp1955
I0
aa(lp1956
I10
aa(lp1957
I0
aaa(lp1958
(lp1959
I0
aa(lp1960
I0
aa(lp1961
I10
aa(lp1962
I0
aaa(lp1963
(lp1964
I0
aa(lp1965
I0
aa(lp1966
I0
aa(lp1967
I0
aaa(lp1968
(lp1969
I0
aa(lp1970
I0
aa(lp1971
I0
aa(lp1972
I0
aaasg35
(lp1973
(lp1974
F0
aF0
aF0
aF0
aF0
aF0
aF0
aF0
aF0
aF0
aF0
aF0
aF0
aF0
aF0
aF0
aa(lp1975
F0
aF0
aF0
aF0
aF0
aF0
aF0
aF0
aF0
aF0
aF0
aF0
aF0
aF0
aF0
aF0
aa(lp1976
F0
aF0
aF0
aF0
aF0
aF0
aF0
aF0
aF0
aF0
aF0
aF0
aF0
aF0
aF0
aF0
aa(lp1977
F0
aF0
aF0
aF0
aF0
aF0
aF0
aF0
aF0
aF0
aF0
aF0
aF0
aF0
aF0
aF0
aa(lp1978
F0
aF0
aF0
aF0
aF0
aF0
aF0
aF0
aF0
aF0
aF0
aF0
aF0
aF0
aF0
aF0
aa(lp1979
F0
aF0
aF0
aF0
aF0
aF0
aF0
aF0
aF0
aF0
aF0
aF0
aF0
aF0
aF0
aF0
aa(lp1980
F0
aF0
aF0
aF0
aF0
aF0
aF0
aF0
aF0
aF0
aF0
aF0
aF0
aF0
aF0
aF0
aa(lp1981
F0
aF0
aF0
aF0
aF0
aF0
aF0
aF0
aF0
aF0
aF0
aF0
aF0
aF0
aF0
aF0
aa(lp1982
F0
aF0
aF0
aF0
aF0
aF0
aF0
aF0
aF0
aF0
aF0
aF0
aF0
aF0
aF0
aF0
aa(lp1983
F0
aF0
aF0
aF0
aF0
aF0
aF0
aF0
aF0
aF0
aF0
aF0
aF0
aF0
aF0
aF0
aa(lp1984
F0
aF0
aF0
aF0
aF0
aF0
aF0
aF0
aF0
aF0
aF0
aF0
aF0
aF0
aF0
aF0
aa(lp1985
F0
aF0
aF0
aF0
aF0
aF0
aF0
aF0
aF0
aF0
aF0
aF0
aF0
aF0
aF0
aF0
aa(lp1986
F0
aF0
aF0
aF0
aF0
aF0
aF0
aF0
aF0
aF0
aF0
aF0
aF0
aF0
aF0
aF0
aa(lp1987
F0
aF0
aF0
aF0
aF0
aF0
aF0
aF0
aF0
aF0
aF0
aF0
aF0
aF0
aF0
aF0
aa(lp1988
F0
aF0
aF0
aF0
aF0
aF0
aF0
aF0
aF0
aF0
aF0
aF0
aF0
aF0
aF0
aF0
aa(lp1989
F0
aF0
aF0
aF0
aF0
aF0
aF0
aF0
aF0
aF0
aF0
aF0
aF0
aF0
aF0
aF0
aasg53
g1947
sbsS'T0'
p1990
(iclusterfk.Mantis
MantisState
p1991
(dp1992
g8
I0
sg9
(lp1993
I00
aI00
aI00
aI00
aI00
aI00
aI00
aI00
aI00
aI00
aI00
aI00
aI00
aI00
aI00
aI00
asg11
(lp1994
I0
aI0
aI0
aI0
aI0
aI0
aI0
aI0
aI0
aI0
aI0
aI0
aI0
aI0
aI0
aI0
asg13
(lp1995
(lp1996
(lp1997
I0
aa(lp1998
I0
aa(lp1999
I0
aa(lp2000
I0
aaa(lp2001
(lp2002
I0
aa(lp2003
I0
aa(lp2004
I0
aa(lp2005
I0
aaa(lp2006
(lp2007
I0
aa(lp2008
I0
aa(lp2009
I10
aa(lp2010
I0
aaa(lp2011
(lp2012
I0
aa(lp2013
I10
aa(lp2014
I0
aa(lp2015
I0
aaasg35
(lp2016
(lp2017
F0
aF0
aF0
aF0
aF0
aF0
aF0
aF0
aF0
aF0
aF0
aF0
aF0
aF0
aF0
aF0
aa(lp2018
F0
aF0
aF0
aF0
aF0
aF0
aF0
aF0
aF0
aF0
aF0
aF0
aF0
aF0
aF0
aF0
aa(lp2019
F0
aF0
aF0
aF0
aF0
aF0
aF0
aF0
aF0
aF0
aF0
aF0
aF0
aF0
aF0
aF0
aa(lp2020
F0
aF0
aF0
aF0
aF0
aF0
aF0
aF0
aF0
aF0
aF0
aF0
aF0
aF0
aF0
aF0
aa(lp2021
F0
aF0
aF0
aF0
aF0
aF0
aF0
aF0
aF0
aF0
aF0
aF0
aF0
aF0
aF0
aF0
aa(lp2022
F0
aF0
aF0
aF0
aF0
aF0
aF0
aF0
aF0
aF0
aF0
aF0
aF0
aF0
aF0
aF0
aa(lp2023
F0
aF0
aF0
aF0
aF0
aF0
aF0
aF0
aF0
aF0
aF0
aF0
aF0
aF0
aF0
aF0
aa(lp2024
F0
aF0
aF0
aF0
aF0
aF0
aF0
aF0
aF0
aF0
aF0
aF0
aF0
aF0
aF0
aF0
aa(lp2025
F0
aF0
aF0
aF0
aF0
aF0
aF0
aF0
aF0
aF0
aF0
aF0
aF0
aF0
aF0
aF0
aa(lp2026
F0
aF0
aF0
aF0
aF0
aF0
aF0
aF0
aF0
aF0
aF0
aF0
aF0
aF0
aF0
aF0
aa(lp2027
F0
aF0
aF0
aF0
aF0
aF0
aF0
aF0
aF0
aF0
aF0
aF0
aF0
aF0
aF0
aF0
aa(lp2028
F0
aF0
aF0
aF0
aF0
aF0
aF0
aF0
aF0
aF0
aF0
aF0
aF0
aF0
aF0
aF0
aa(lp2029
F0
aF0
aF0
aF0
aF0
aF0
aF0
aF0
aF0
aF0
aF0
aF0
aF0
aF0
aF0
aF0
aa(lp2030
F0
aF0
aF0
aF0
aF0
aF0
aF0
aF0
aF0
aF0
aF0
aF0
aF0
aF0
aF0
aF0
aa(lp2031
F0
aF0
aF0
aF0
aF0
aF0
aF0
aF0
aF0
aF0
aF0
aF0
aF0
aF0
aF0
aF0
aa(lp2032
F0
aF0
aF0
aF0
aF0
aF0
aF0
aF0
aF0
aF0
aF0
aF0
aF0
aF0
aF0
aF0
aasg53
g1990
sbsS'T1'
p2033
(iclusterfk.Mantis
MantisState
p2034
(dp2035
g8
I0
sg9
(lp2036
I00
aI00
aI00
aI00
aI00
aI00
aI00
aI00
aI00
aI00
aI00
aI00
aI00
aI00
aI00
aI00
asg11
(lp2037
I0
aI0
aI0
aI0
aI0
aI0
aI0
aI0
aI0
aI0
aI0
aI0
aI0
aI0
aI0
aI0
asg13
(lp2038
(lp2039
(lp2040
I0
aa(lp2041
I0
aa(lp2042
I0
aa(lp2043
I0
aaa(lp2044
(lp2045
I0
aa(lp2046
I0
aa(lp2047
I0
aa(lp2048
I0
aaa(lp2049
(lp2050
I0
aa(lp2051
I0
aa(lp2052
I10
aa(lp2053
I0
aaa(lp2054
(lp2055
I0
aa(lp2056
I0
aa(lp2057
I10
aa(lp2058
I0
aaasg35
(lp2059
(lp2060
F0
aF0
aF0
aF0
aF0
aF0
aF0
aF0
aF0
aF0
aF0
aF0
aF0
aF0
aF0
aF0
aa(lp2061
F0
aF0
aF0
aF0
aF0
aF0
aF0
aF0
aF0
aF0
aF0
aF0
aF0
aF0
aF0
aF0
aa(lp2062
F0
aF0
aF0
aF0
aF0
aF0
aF0
aF0
aF0
aF0
aF0
aF0
aF0
aF0
aF0
aF0
aa(lp2063
F0
aF0
aF0
aF0
aF0
aF0
aF0
aF0
aF0
aF0
aF0
aF0
aF0
aF0
aF0
aF0
aa(lp2064
F0
aF0
aF0
aF0
aF0
aF0
aF0
aF0
aF0
aF0
aF0
aF0
aF0
aF0
aF0
aF0
aa(lp2065
F0
aF0
aF0
aF0
aF0
aF0
aF0
aF0
aF0
aF0
aF0
aF0
aF0
aF0
aF0
aF0
aa(lp2066
F0
aF0
aF0
aF0
aF0
aF0
aF0
aF0
aF0
aF0
aF0
aF0
aF0
aF0
aF0
aF0
aa(lp2067
F0
aF0
aF0
aF0
aF0
aF0
aF0
aF0
aF0
aF0
aF0
aF0
aF0
aF0
aF0
aF0
aa(lp2068
F0
aF0
aF0
aF0
aF0
aF0
aF0
aF0
aF0
aF0
aF0
aF0
aF0
aF0
aF0
aF0
aa(lp2069
F0
aF0
aF0
aF0
aF0
aF0
aF0
aF0
aF0
aF0
aF0
aF0
aF0
aF0
aF0
aF0
aa(lp2070
F0
aF0
aF0
aF0
aF0
aF0
aF0
aF0
aF0
aF0
aF0
aF0
aF0
aF0
aF0
aF0
aa(lp2071
F0
aF0
aF0
aF0
aF0
aF0
aF0
aF0
aF0
aF0
aF0
aF0
aF0
aF0
aF0
aF0
aa(lp2072
F0
aF0
aF0
aF0
aF0
aF0
aF0
aF0
aF0
aF0
aF0
aF0
aF0
aF0
aF0
aF0
aa(lp2073
F0
aF0
aF0
aF0
aF0
aF0
aF0
aF0
aF0
aF0
aF0
aF0
aF0
aF0
aF0
aF0
aa(lp2074
F0
aF0
aF0
aF0
aF0
aF0
aF0
aF0
aF0
aF0
aF0
aF0
aF0
aF0
aF0
aF0
aa(lp2075
F0
aF0
aF0
aF0
aF0
aF0
aF0
aF0
aF0
aF0
aF0
aF0
aF0
aF0
aF0
aF0
aasg53
g2033
sbsS'P9'
p2076
(iclusterfk.Mantis
MantisState
p2077
(dp2078
g8
I0
sg9
(lp2079
I00
aI00
aI00
aI00
aI00
aI00
aI00
aI00
aI00
aI00
aI00
aI00
aI00
aI00
aI00
aI00
asg11
(lp2080
I0
aI0
aI0
aI0
aI0
aI0
aI0
aI0
aI0
aI0
aI0
aI0
aI0
aI0
aI0
aI0
asg13
(lp2081
(lp2082
g651
ag657
ag669
ag663
aa(lp2083
g667
ag661
ag653
ag659
aa(lp2084
g664
ag668
ag656
ag652
aa(lp2085
g658
ag654
ag662
ag666
aasg35
(lp2086
(lp2087
F1
aF0
aF0
aF0
aF0
aF0
aF0
aF0
aF0
aF0
aF0
aF0
aF0
aF0
aF0
aF0
aa(lp2088
F1
aF0
aF0
aF0
aF0
aF0
aF0
aF0
aF0
aF0
aF0
aF0
aF0
aF0
aF0
aF0
aa(lp2089
F1
aF0
aF0
aF0
aF0
aF0
aF0
aF0
aF0
aF0
aF0
aF0
aF0
aF0
aF0
aF0
aa(lp2090
F1
aF0
aF0
aF0
aF0
aF0
aF0
aF0
aF0
aF0
aF0
aF0
aF0
aF0
aF0
aF0
aa(lp2091
F1
aF0
aF0
aF0
aF0
aF0
aF0
aF0
aF0
aF0
aF0
aF0
aF0
aF0
aF0
aF0
aa(lp2092
F1
aF0
aF0
aF0
aF0
aF0
aF0
aF0
aF0
aF0
aF0
aF0
aF0
aF0
aF0
aF0
aa(lp2093
F1
aF0
aF0
aF0
aF0
aF0
aF0
aF0
aF0
aF0
aF0
aF0
aF0
aF0
aF0
aF0
aa(lp2094
F1
aF0
aF0
aF0
aF0
aF0
aF0
aF0
aF0
aF0
aF0
aF0
aF0
aF0
aF0
aF0
aa(lp2095
F1
aF0
aF0
aF0
aF0
aF0
aF0
aF0
aF0
aF0
aF0
aF0
aF0
aF0
aF0
aF0
aa(lp2096
F1
aF0
aF0
aF0
aF0
aF0
aF0
aF0
aF0
aF0
aF0
aF0
aF0
aF0
aF0
aF0
aa(lp2097
F1
aF0
aF0
aF0
aF0
aF0
aF0
aF0
aF0
aF0
aF0
aF0
aF0
aF0
aF0
aF0
aa(lp2098
F1
aF0
aF0
aF0
aF0
aF0
aF0
aF0
aF0
aF0
aF0
aF0
aF0
aF0
aF0
aF0
aa(lp2099
F1
aF0
aF0
aF0
aF0
aF0
aF0
aF0
aF0
aF0
aF0
aF0
aF0
aF0
aF0
aF0
aa(lp2100
F1
aF0
aF0
aF0
aF0
aF0
aF0
aF0
aF0
aF0
aF0
aF0
aF0
aF0
aF0
aF0
aa(lp2101
F1
aF0
aF0
aF0
aF0
aF0
aF0
aF0
aF0
aF0
aF0
aF0
aF0
aF0
aF0
aF0
aa(lp2102
F1
aF0
aF0
aF0
aF0
aF0
aF0
aF0
aF0
aF0
aF0
aF0
aF0
aF0
aF0
aF0
aasg53
g2076
sbsS'a7'
p2103
(iclusterfk.Mantis
MantisState
p2104
(dp2105
g8
I0
sg9
(lp2106
I00
aI00
aI00
aI00
aI00
aI00
aI00
aI00
aI00
aI00
aI00
aI00
aI00
aI00
aI00
aI00
asg11
(lp2107
I0
aI13
aI0
aI0
aI0
aI0
aI0
aI0
aI0
aI0
aI0
aI0
aI0
aI13
aI0
aI0
asg13
(lp2108
(lp2109
(lp2110
I0
aa(lp2111
I10
aI13
aI5
aI15
aa(lp2112
I0
aa(lp2113
I0
aaa(lp2114
(lp2115
I0
aa(lp2116
I0
aa(lp2117
I0
aa(lp2118
I0
aaa(lp2119
(lp2120
I0
aa(lp2121
I0
aa(lp2122
I0
aa(lp2123
I0
aaa(lp2124
(lp2125
I0
aa(lp2126
I10
aI13
aI5
aI15
aa(lp2127
I0
aa(lp2128
I0
aaasg35
(lp2129
(lp2130
F1
aF0
aF0
aF0
aF0
aF0
aF0
aF0
aF0
aF0
aF0
aF0
aF0
aF0
aF0
aF0
aa(lp2131
F0
aF0
aF0
aF0
aF0
aF0.25
aF0
aF0
aF0
aF0
aF0.25
aF0
aF0
aF0.25
aF0
aF0.25
aa(lp2132
F1
aF0
aF0
aF0
aF0
aF0
aF0
aF0
aF0
aF0
aF0
aF0
aF0
aF0
aF0
aF0
aa(lp2133
F1
aF0
aF0
aF0
aF0
aF0
aF0
aF0
aF0
aF0
aF0
aF0
aF0
aF0
aF0
aF0
aa(lp2134
F1
aF0
aF0
aF0
aF0
aF0
aF0
aF0
aF0
aF0
aF0
aF0
aF0
aF0
aF0
aF0
aa(lp2135
F1
aF0
aF0
aF0
aF0
aF0
aF0
aF0
aF0
aF0
aF0
aF0
aF0
aF0
aF0
aF0
aa(lp2136
F1
aF0
aF0
aF0
aF0
aF0
aF0
aF0
aF0
aF0
aF0
aF0
aF0
aF0
aF0
aF0
aa(lp2137
F1
aF0
aF0
aF0
aF0
aF0
aF0
aF0
aF0
aF0
aF0
aF0
aF0
aF0
aF0
aF0
aa(lp2138
F1
aF0
aF0
aF0
aF0
aF0
aF0
aF0
aF0
aF0
aF0
aF0
aF0
aF0
aF0
aF0
aa(lp2139
F1
aF0
aF0
aF0
aF0
aF0
aF0
aF0
aF0
aF0
aF0
aF0
aF0
aF0
aF0
aF0
aa(lp2140
F1
aF0
aF0
aF0
aF0
aF0
aF0
aF0
aF0
aF0
aF0
aF0
aF0
aF0
aF0
aF0
aa(lp2141
F1
aF0
aF0
aF0
aF0
aF0
aF0
aF0
aF0
aF0
aF0
aF0
aF0
aF0
aF0
aF0
aa(lp2142
F1
aF0
aF0
aF0
aF0
aF0
aF0
aF0
aF0
aF0
aF0
aF0
aF0
aF0
aF0
aF0
aa(lp2143
F0
aF0
aF0
aF0
aF0
aF0.25
aF0
aF0
aF0
aF0
aF0.25
aF0
aF0
aF0.25
aF0
aF0.25
aa(lp2144
F1
aF0
aF0
aF0
aF0
aF0
aF0
aF0
aF0
aF0
aF0
aF0
aF0
aF0
aF0
aF0
aa(lp2145
F1
aF0
aF0
aF0
aF0
aF0
aF0
aF0
aF0
aF0
aF0
aF0
aF0
aF0
aF0
aF0
aasg53
g2103
sbsS'A14'
p2146
(iclusterfk.Mantis
MantisState
p2147
(dp2148
g8
I0
sg9
(lp2149
I00
aI00
aI00
aI00
aI00
aI00
aI00
aI00
aI00
aI00
aI00
aI00
aI00
aI00
aI00
aI00
asg11
(lp2150
I0
aI0
aI0
aI0
aI0
aI0
aI0
aI0
aI0
aI0
aI0
aI0
aI0
aI0
aI0
aI0
asg13
(lp2151
(lp2152
(lp2153
I0
aa(lp2154
I0
aa(lp2155
I1
aI3
aI4
aI5
aI6
aI7
aI9
aI10
aI11
aI12
aI13
aI14
aI15
aa(lp2156
I0
aaa(lp2157
(lp2158
I1
aI2
aI3
aI4
aI5
aI6
aI7
aI8
aI9
aI10
aI11
aI12
aI13
aI14
aI15
aa(lp2159
I0
aa(lp2160
I1
aI3
aI4
aI5
aI6
aI7
aI9
aI10
aI11
aI12
aI13
aI14
aI15
aa(lp2161
I0
aaa(lp2162
(lp2163
I1
aI3
aI4
aI5
aI6
aI7
aI9
aI10
aI11
aI12
aI13
aI14
aI15
aa(lp2164
I0
aa(lp2165
I0
aI1
aI3
aI4
aI5
aI6
aI7
aI9
aI10
aI11
aI12
aI13
aI14
aI15
aa(lp2166
I1
aI2
aI3
aI4
aI5
aI6
aI7
aI8
aI9
aI10
aI11
aI12
aI13
aI14
aI15
aaa(lp2167
(lp2168
I0
aa(lp2169
I0
aI1
aI3
aI4
aI5
aI6
aI7
aI9
aI11
aI12
aI13
aI14
aI15
aa(lp2170
I0
aI1
aI2
aI3
aI4
aI5
aI6
aI7
aI8
aI9
aI10
aI11
aI12
aI13
aI14
aI15
aa(lp2171
I0
aaasg35
(lp2172
(lp2173
F0
aF0
aF0
aF0
aF0
aF0
aF0
aF0
aF0
aF0
aF0
aF0
aF0
aF0
aF0
aF0
aa(lp2174
F0
aF0
aF0
aF0
aF0
aF0
aF0
aF0
aF0
aF0
aF0
aF0
aF0
aF0
aF0
aF0
aa(lp2175
F0
aF0
aF0
aF0
aF0
aF0
aF0
aF0
aF0
aF0
aF0
aF0
aF0
aF0
aF0
aF0
aa(lp2176
F0
aF0
aF0
aF0
aF0
aF0
aF0
aF0
aF0
aF0
aF0
aF0
aF0
aF0
aF0
aF0
aa(lp2177
F0
aF0
aF0
aF0
aF0
aF0
aF0
aF0
aF0
aF0
aF0
aF0
aF0
aF0
aF0
aF0
aa(lp2178
F0
aF0
aF0
aF0
aF0
aF0
aF0
aF0
aF0
aF0
aF0
aF0
aF0
aF0
aF0
aF0
aa(lp2179
F0
aF0
aF0
aF0
aF0
aF0
aF0
aF0
aF0
aF0
aF0
aF0
aF0
aF0
aF0
aF0
aa(lp2180
F0
aF0
aF0
aF0
aF0
aF0
aF0
aF0
aF0
aF0
aF0
aF0
aF0
aF0
aF0
aF0
aa(lp2181
F0
aF0
aF0
aF0
aF0
aF0
aF0
aF0
aF0
aF0
aF0
aF0
aF0
aF0
aF0
aF0
aa(lp2182
F0
aF0
aF0
aF0
aF0
aF0
aF0
aF0
aF0
aF0
aF0
aF0
aF0
aF0
aF0
aF0
aa(lp2183
F0
aF0
aF0
aF0
aF0
aF0
aF0
aF0
aF0
aF0
aF0
aF0
aF0
aF0
aF0
aF0
aa(lp2184
F0
aF0
aF0
aF0
aF0
aF0
aF0
aF0
aF0
aF0
aF0
aF0
aF0
aF0
aF0
aF0
aa(lp2185
F0
aF0
aF0
aF0
aF0
aF0
aF0
aF0
aF0
aF0
aF0
aF0
aF0
aF0
aF0
aF0
aa(lp2186
F0
aF0
aF0
aF0
aF0
aF0
aF0
aF0
aF0
aF0
aF0
aF0
aF0
aF0
aF0
aF0
aa(lp2187
F0
aF0
aF0
aF0
aF0
aF0
aF0
aF0
aF0
aF0
aF0
aF0
aF0
aF0
aF0
aF0
aa(lp2188
F0
aF0
aF0
aF0
aF0
aF0
aF0
aF0
aF0
aF0
aF0
aF0
aF0
aF0
aF0
aF0
aasg53
g2146
sbsS'A12'
p2189
(iclusterfk.Mantis
MantisState
p2190
(dp2191
g8
I0
sg9
(lp2192
I00
aI00
aI00
aI00
aI00
aI00
aI00
aI00
aI00
aI00
aI00
aI00
aI00
aI00
aI00
aI00
asg11
(lp2193
I7
aI0
aI0
aI0
aI0
aI7
aI8
aI0
aI0
aI0
aI7
aI0
aI8
aI0
aI0
aI0
asg13
(lp2194
(lp2195
(lp2196
I10
aI13
aI5
aI15
aa(lp2197
I0
aa(lp2198
I0
aa(lp2199
I0
aaa(lp2200
(lp2201
I0
aa(lp2202
I10
aI13
aI5
aI15
aa(lp2203
I10
aI5
aI13
aI15
aa(lp2204
I10
aaa(lp2205
(lp2206
I10
aa(lp2207
I0
aa(lp2208
I10
aI13
aI5
aI15
aa(lp2209
I0
aaa(lp2210
(lp2211
I10
aI5
aI13
aI15
aa(lp2212
I0
aa(lp2213
I10
aa(lp2214
I0
aaasg35
(lp2215
(lp2216
F0
aF0
aF0
aF0
aF0
aF0.125
aF0
aF0
aF0
aF0
aF0.5
aF0
aF0
aF0.125
aF0
aF0.25
aa(lp2217
F1
aF0
aF0
aF0
aF0
aF0
aF0
aF0
aF0
aF0
aF0
aF0
aF0
aF0
aF0
aF0
aa(lp2218
F1
aF0
aF0
aF0
aF0
aF0
aF0
aF0
aF0
aF0
aF0
aF0
aF0
aF0
aF0
aF0
aa(lp2219
F1
aF0
aF0
aF0
aF0
aF0
aF0
aF0
aF0
aF0
aF0
aF0
aF0
aF0
aF0
aF0
aa(lp2220
F1
aF0
aF0
aF0
aF0
aF0
aF0
aF0
aF0
aF0
aF0
aF0
aF0
aF0
aF0
aF0
aa(lp2221
F0
aF0
aF0
aF0
aF0
aF0.125
aF0
aF0
aF0
aF0
aF0.5
aF0
aF0
aF0.125
aF0
aF0.25
aa(lp2222
F0
aF0
aF0
aF0
aF0
aF0.25
aF0
aF0
aF0
aF0
aF0.25
aF0
aF0
aF0.25
aF0
aF0.25
aa(lp2223
F0
aF0
aF0
aF0
aF0
aF0
aF0
aF0
aF0
aF0
aF1
aF0
aF0
aF0
aF0
aF0
aa(lp2224
F0
aF0
aF0
aF0
aF0
aF0
aF0
aF0
aF0
aF0
aF1
aF0
aF0
aF0
aF0
aF0
aa(lp2225
F1
aF0
aF0
aF0
aF0
aF0
aF0
aF0
aF0
aF0
aF0
aF0
aF0
aF0
aF0
aF0
aa(lp2226
F0
aF0
aF0
aF0
aF0
aF0.125
aF0
aF0
aF0
aF0
aF0.5
aF0
aF0
aF0.125
aF0
aF0.25
aa(lp2227
F1
aF0
aF0
aF0
aF0
aF0
aF0
aF0
aF0
aF0
aF0
aF0
aF0
aF0
aF0
aF0
aa(lp2228
F0
aF0
aF0
aF0
aF0
aF0.25
aF0
aF0
aF0
aF0
aF0.25
aF0
aF0
aF0.25
aF0
aF0.25
aa(lp2229
F1
aF0
aF0
aF0
aF0
aF0
aF0
aF0
aF0
aF0
aF0
aF0
aF0
aF0
aF0
aF0
aa(lp2230
F0
aF0
aF0
aF0
aF0
aF0
aF0
aF0
aF0
aF0
aF1
aF0
aF0
aF0
aF0
aF0
aa(lp2231
F1
aF0
aF0
aF0
aF0
aF0
aF0
aF0
aF0
aF0
aF0
aF0
aF0
aF0
aF0
aF0
aasg53
g2189
sbsS'M11'
p2232
(iclusterfk.Mantis
MantisState
p2233
(dp2234
g8
I0
sg9
(lp2235
I00
aI00
aI00
aI00
aI00
aI00
aI00
aI00
aI00
aI00
aI00
aI00
aI00
aI00
aI00
aI00
asg11
(lp2236
I0
aI0
aI0
aI0
aI0
aI0
aI6
aI0
aI0
aI0
aI6
aI0
aI0
aI0
aI0
aI0
asg13
(lp2237
(lp2238
g908
ag921
ag915
ag924
aa(lp2239
g920
ag909
a(lp2240
I10
aI5
aI13
aI15
aag916
aa(lp2241
g914
ag925
ag2240
ag918
aa(lp2242
g926
ag913
ag919
ag910
aasg35
(lp2243
(lp2244
F1
aF0
aF0
aF0
aF0
aF0
aF0
aF0
aF0
aF0
aF0
aF0
aF0
aF0
aF0
aF0
aa(lp2245
F1
aF0
aF0
aF0
aF0
aF0
aF0
aF0
aF0
aF0
aF0
aF0
aF0
aF0
aF0
aF0
aa(lp2246
F1
aF0
aF0
aF0
aF0
aF0
aF0
aF0
aF0
aF0
aF0
aF0
aF0
aF0
aF0
aF0
aa(lp2247
F1
aF0
aF0
aF0
aF0
aF0
aF0
aF0
aF0
aF0
aF0
aF0
aF0
aF0
aF0
aF0
aa(lp2248
F1
aF0
aF0
aF0
aF0
aF0
aF0
aF0
aF0
aF0
aF0
aF0
aF0
aF0
aF0
aF0
aa(lp2249
F1
aF0
aF0
aF0
aF0
aF0
aF0
aF0
aF0
aF0
aF0
aF0
aF0
aF0
aF0
aF0
aa(lp2250
F0
aF0
aF0
aF0
aF0
aF0.25
aF0
aF0
aF0
aF0
aF0.25
aF0
aF0
aF0.25
aF0
aF0.25
aa(lp2251
F1
aF0
aF0
aF0
aF0
aF0
aF0
aF0
aF0
aF0
aF0
aF0
aF0
aF0
aF0
aF0
aa(lp2252
F1
aF0
aF0
aF0
aF0
aF0
aF0
aF0
aF0
aF0
aF0
aF0
aF0
aF0
aF0
aF0
aa(lp2253
F1
aF0
aF0
aF0
aF0
aF0
aF0
aF0
aF0
aF0
aF0
aF0
aF0
aF0
aF0
aF0
aa(lp2254
F0
aF0
aF0
aF0
aF0
aF0.25
aF0
aF0
aF0
aF0
aF0.25
aF0
aF0
aF0.25
aF0
aF0.25
aa(lp2255
F1
aF0
aF0
aF0
aF0
aF0
aF0
aF0
aF0
aF0
aF0
aF0
aF0
aF0
aF0
aF0
aa(lp2256
F1
aF0
aF0
aF0
aF0
aF0
aF0
aF0
aF0
aF0
aF0
aF0
aF0
aF0
aF0
aF0
aa(lp2257
F1
aF0
aF0
aF0
aF0
aF0
aF0
aF0
aF0
aF0
aF0
aF0
aF0
aF0
aF0
aF0
aa(lp2258
F1
aF0
aF0
aF0
aF0
aF0
aF0
aF0
aF0
aF0
aF0
aF0
aF0
aF0
aF0
aF0
aa(lp2259
F1
aF0
aF0
aF0
aF0
aF0
aF0
aF0
aF0
aF0
aF0
aF0
aF0
aF0
aF0
aF0
aasg53
g2232
sbsS'M10'
p2260
(iclusterfk.Mantis
MantisState
p2261
(dp2262
g8
I0
sg9
(lp2263
I00
aI00
aI00
aI00
aI00
aI00
aI00
aI00
aI00
aI00
aI00
aI00
aI00
aI00
aI00
aI00
asg11
(lp2264
I0
aI0
aI0
aI0
aI0
aI0
aI0
aI0
aI0
aI0
aI0
aI0
aI0
aI0
aI0
aI0
asg13
(lp2265
(lp2266
(lp2267
I10
aag749
ag743
ag752
aa(lp2268
g2267
ag737
ag751
ag744
aa(lp2269
g742
ag753
ag739
ag746
aa(lp2270
g754
ag741
ag747
ag738
aasg35
(lp2271
(lp2272
F0
aF0
aF0
aF0
aF0
aF0
aF0
aF0
aF0
aF0
aF1
aF0
aF0
aF0
aF0
aF0
aa(lp2273
F1
aF0
aF0
aF0
aF0
aF0
aF0
aF0
aF0
aF0
aF0
aF0
aF0
aF0
aF0
aF0
aa(lp2274
F1
aF0
aF0
aF0
aF0
aF0
aF0
aF0
aF0
aF0
aF0
aF0
aF0
aF0
aF0
aF0
aa(lp2275
F1
aF0
aF0
aF0
aF0
aF0
aF0
aF0
aF0
aF0
aF0
aF0
aF0
aF0
aF0
aF0
aa(lp2276
F0
aF0
aF0
aF0
aF0
aF0
aF0
aF0
aF0
aF0
aF1
aF0
aF0
aF0
aF0
aF0
aa(lp2277
F1
aF0
aF0
aF0
aF0
aF0
aF0
aF0
aF0
aF0
aF0
aF0
aF0
aF0
aF0
aF0
aa(lp2278
F1
aF0
aF0
aF0
aF0
aF0
aF0
aF0
aF0
aF0
aF0
aF0
aF0
aF0
aF0
aF0
aa(lp2279
F1
aF0
aF0
aF0
aF0
aF0
aF0
aF0
aF0
aF0
aF0
aF0
aF0
aF0
aF0
aF0
aa(lp2280
F1
aF0
aF0
aF0
aF0
aF0
aF0
aF0
aF0
aF0
aF0
aF0
aF0
aF0
aF0
aF0
aa(lp2281
F1
aF0
aF0
aF0
aF0
aF0
aF0
aF0
aF0
aF0
aF0
aF0
aF0
aF0
aF0
aF0
aa(lp2282
F1
aF0
aF0
aF0
aF0
aF0
aF0
aF0
aF0
aF0
aF0
aF0
aF0
aF0
aF0
aF0
aa(lp2283
F1
aF0
aF0
aF0
aF0
aF0
aF0
aF0
aF0
aF0
aF0
aF0
aF0
aF0
aF0
aF0
aa(lp2284
F1
aF0
aF0
aF0
aF0
aF0
aF0
aF0
aF0
aF0
aF0
aF0
aF0
aF0
aF0
aF0
aa(lp2285
F1
aF0
aF0
aF0
aF0
aF0
aF0
aF0
aF0
aF0
aF0
aF0
aF0
aF0
aF0
aF0
aa(lp2286
F1
aF0
aF0
aF0
aF0
aF0
aF0
aF0
aF0
aF0
aF0
aF0
aF0
aF0
aF0
aF0
aa(lp2287
F1
aF0
aF0
aF0
aF0
aF0
aF0
aF0
aF0
aF0
aF0
aF0
aF0
aF0
aF0
aF0
aasg53
g2260
sbsS'M13'
p2288
(iclusterfk.Mantis
MantisState
p2289
(dp2290
g8
I0
sg9
(lp2291
I00
aI00
aI00
aI00
aI00
aI00
aI00
aI00
aI00
aI00
aI00
aI00
aI00
aI00
aI00
aI00
asg11
(lp2292
I0
aI10
aI11
aI12
aI9
aI0
aI0
aI0
aI0
aI10
aI0
aI12
aI0
aI10
aI0
aI12
asg13
(lp2293
(lp2294
g1731
a(lp2295
I1
aI3
aI4
aI5
aI6
aI7
aI9
aI10
aI11
aI12
aI13
aI14
aI15
aa(lp2296
I10
aI5
aI13
aI15
aa(lp2297
I10
aI5
aI13
aI15
aaa(lp2298
(lp2299
I10
aI13
aI5
aI15
aag1732
ag1746
ag1739
aa(lp2300
g1737
ag2295
ag1734
ag2297
aa(lp2301
g1749
ag2295
ag1742
ag2297
aasg35
(lp2302
(lp2303
F1
aF0
aF0
aF0
aF0
aF0
aF0
aF0
aF0
aF0
aF0
aF0
aF0
aF0
aF0
aF0
aa(lp2304
F0
aF0.015625
aF0
aF0.046875
aF0.015625
aF0.125
aF0.046875
aF0.0625
aF0
aF0.015625
aF0.25
aF0.046875
aF0.015625
aF0.125
aF0.046875
aF0.1875
aa(lp2305
F0
aF0
aF0
aF0
aF0
aF0.076923076923076927
aF0
aF0
aF0
aF0
aF0.61538461538461542
aF0
aF0
aF0.076923076923076927
aF0
aF0.23076923076923073
aa(lp2306
F0
aF0
aF0
aF0
aF0
aF0.25
aF0
aF0
aF0
aF0
aF0.25
aF0
aF0
aF0.25
aF0
aF0.25
aa(lp2307
F0
aF0
aF0
aF0
aF0
aF0.076923076923076927
aF0
aF0
aF0
aF0
aF0.61538461538461542
aF0
aF0
aF0.076923076923076927
aF0
aF0.23076923076923073
aa(lp2308
F1
aF0
aF0
aF0
aF0
aF0
aF0
aF0
aF0
aF0
aF0
aF0
aF0
aF0
aF0
aF0
aa(lp2309
F1
aF0
aF0
aF0
aF0
aF0
aF0
aF0
aF0
aF0
aF0
aF0
aF0
aF0
aF0
aF0
aa(lp2310
F1
aF0
aF0
aF0
aF0
aF0
aF0
aF0
aF0
aF0
aF0
aF0
aF0
aF0
aF0
aF0
aa(lp2311
F1
aF0
aF0
aF0
aF0
aF0
aF0
aF0
aF0
aF0
aF0
aF0
aF0
aF0
aF0
aF0
aa(lp2312
F0
aF0.015625
aF0
aF0.046875
aF0.015625
aF0.125
aF0.046875
aF0.0625
aF0
aF0.015625
aF0.25
aF0.046875
aF0.015625
aF0.125
aF0.046875
aF0.1875
aa(lp2313
F1
aF0
aF0
aF0
aF0
aF0
aF0
aF0
aF0
aF0
aF0
aF0
aF0
aF0
aF0
aF0
aa(lp2314
F0
aF0
aF0
aF0
aF0
aF0.25
aF0
aF0
aF0
aF0
aF0.25
aF0
aF0
aF0.25
aF0
aF0.25
aa(lp2315
F1
aF0
aF0
aF0
aF0
aF0
aF0
aF0
aF0
aF0
aF0
aF0
aF0
aF0
aF0
aF0
aa(lp2316
F0
aF0.015625
aF0
aF0.046875
aF0.015625
aF0.125
aF0.046875
aF0.0625
aF0
aF0.015625
aF0.25
aF0.046875
aF0.015625
aF0.125
aF0.046875
aF0.1875
aa(lp2317
F1
aF0
aF0
aF0
aF0
aF0
aF0
aF0
aF0
aF0
aF0
aF0
aF0
aF0
aF0
aF0
aa(lp2318
F0
aF0
aF0
aF0
aF0
aF0.25
aF0
aF0
aF0
aF0
aF0.25
aF0
aF0
aF0.25
aF0
aF0.25
aasg53
g2288
sbsS'M12'
p2319
(iclusterfk.Mantis
MantisState
p2320
(dp2321
g8
I0
sg9
(lp2322
I00
aI00
aI00
aI00
aI00
aI00
aI00
aI00
aI00
aI00
aI00
aI00
aI00
aI00
aI00
aI00
asg11
(lp2323
I7
aI0
aI8
aI0
aI7
aI0
aI8
aI0
aI7
aI0
aI0
aI0
aI0
aI0
aI0
aI0
asg13
(lp2324
(lp2325
(lp2326
I10
aI13
aI5
aI15
aag1136
a(lp2327
I10
aI5
aI13
aI15
aag1139
aa(lp2328
g2326
ag1124
ag2327
a(lp2329
I10
aaa(lp2330
g2326
ag1140
ag1126
ag2329
aa(lp2331
g1141
ag1128
ag1134
ag2329
aasg35
(lp2332
(lp2333
F0
aF0
aF0
aF0
aF0
aF0.125
aF0
aF0
aF0
aF0
aF0.5
aF0
aF0
aF0.125
aF0
aF0.25
aa(lp2334
F1
aF0
aF0
aF0
aF0
aF0
aF0
aF0
aF0
aF0
aF0
aF0
aF0
aF0
aF0
aF0
aa(lp2335
F0
aF0
aF0
aF0
aF0
aF0.25
aF0
aF0
aF0
aF0
aF0.25
aF0
aF0
aF0.25
aF0
aF0.25
aa(lp2336
F1
aF0
aF0
aF0
aF0
aF0
aF0
aF0
aF0
aF0
aF0
aF0
aF0
aF0
aF0
aF0
aa(lp2337
F0
aF0
aF0
aF0
aF0
aF0.125
aF0
aF0
aF0
aF0
aF0.5
aF0
aF0
aF0.125
aF0
aF0.25
aa(lp2338
F1
aF0
aF0
aF0
aF0
aF0
aF0
aF0
aF0
aF0
aF0
aF0
aF0
aF0
aF0
aF0
aa(lp2339
F0
aF0
aF0
aF0
aF0
aF0.25
aF0
aF0
aF0
aF0
aF0.25
aF0
aF0
aF0.25
aF0
aF0.25
aa(lp2340
F0
aF0
aF0
aF0
aF0
aF0
aF0
aF0
aF0
aF0
aF1
aF0
aF0
aF0
aF0
aF0
aa(lp2341
F0
aF0
aF0
aF0
aF0
aF0.125
aF0
aF0
aF0
aF0
aF0.5
aF0
aF0
aF0.125
aF0
aF0.25
aa(lp2342
F1
aF0
aF0
aF0
aF0
aF0
aF0
aF0
aF0
aF0
aF0
aF0
aF0
aF0
aF0
aF0
aa(lp2343
F1
aF0
aF0
aF0
aF0
aF0
aF0
aF0
aF0
aF0
aF0
aF0
aF0
aF0
aF0
aF0
aa(lp2344
F0
aF0
aF0
aF0
aF0
aF0
aF0
aF0
aF0
aF0
aF1
aF0
aF0
aF0
aF0
aF0
aa(lp2345
F1
aF0
aF0
aF0
aF0
aF0
aF0
aF0
aF0
aF0
aF0
aF0
aF0
aF0
aF0
aF0
aa(lp2346
F1
aF0
aF0
aF0
aF0
aF0
aF0
aF0
aF0
aF0
aF0
aF0
aF0
aF0
aF0
aF0
aa(lp2347
F1
aF0
aF0
aF0
aF0
aF0
aF0
aF0
aF0
aF0
aF0
aF0
aF0
aF0
aF0
aF0
aa(lp2348
F0
aF0
aF0
aF0
aF0
aF0
aF0
aF0
aF0
aF0
aF1
aF0
aF0
aF0
aF0
aF0
aasg53
g2319
sbssS'propagations'
p2349
(lp2350
(iclusterfk.Propagation
XORStep
p2351
(dp2352
S'tweak'
p2353
g1991
sS'outstate'
p2354
g227
sS'instate'
p2355
g1246
sba(iclusterfk.Propagation
SBOXStep
p2356
(dp2357
g2354
g1203
sS'ddt'
p2358
(lp2359
(lp2360
I16
aI0
aI0
aI0
aI0
aI0
aI0
aI0
aI0
aI0
aI0
aI0
aI0
aI0
aI0
aI0
aa(lp2361
I0
aI2
aI4
aI0
aI2
aI2
aI2
aI0
aI2
aI0
aI0
aI0
aI0
aI0
aI2
aI0
aa(lp2362
I0
aI4
aI0
aI0
aI4
aI0
aI0
aI0
aI0
aI4
aI0
aI0
aI4
aI0
aI0
aI0
aa(lp2363
I0
aI0
aI0
aI0
aI2
aI0
aI4
aI2
aI2
aI2
aI0
aI0
aI0
aI2
aI0
aI2
aa(lp2364
I0
aI2
aI4
aI2
aI2
aI2
aI0
aI0
aI2
aI0
aI0
aI2
aI0
aI0
aI0
aI0
aa(lp2365
I0
aI2
aI0
aI0
aI2
aI0
aI0
aI4
aI0
aI2
aI4
aI0
aI2
aI0
aI0
aI0
aa(lp2366
I0
aI2
aI0
aI4
aI0
aI0
aI0
aI2
aI2
aI0
aI0
aI0
aI2
aI2
aI0
aI2
aa(lp2367
I0
aI0
aI0
aI2
aI0
aI4
aI2
aI0
aI0
aI0
aI0
aI2
aI0
aI4
aI2
aI0
aa(lp2368
I0
aI2
aI0
aI2
aI2
aI0
aI2
aI0
aI0
aI2
aI0
aI2
aI2
aI0
aI2
aI0
aa(lp2369
I0
aI0
aI4
aI2
aI0
aI2
aI0
aI0
aI2
aI2
aI0
aI2
aI2
aI0
aI0
aI0
aa(lp2370
I0
aI0
aI0
aI0
aI0
aI4
aI0
aI0
aI0
aI0
aI4
aI0
aI0
aI4
aI0
aI4
aa(lp2371
I0
aI0
aI0
aI0
aI2
aI0
aI0
aI2
aI2
aI2
aI0
aI4
aI0
aI2
aI0
aI2
aa(lp2372
I0
aI0
aI4
aI0
aI0
aI2
aI2
aI0
aI2
aI2
aI0
aI0
aI2
aI0
aI2
aI0
aa(lp2373
I0
aI0
aI0
aI2
aI0
aI0
aI2
aI4
aI0
aI0
aI4
aI2
aI0
aI0
aI2
aI0
aa(lp2374
I0
aI2
aI0
aI0
aI0
aI0
aI0
aI2
aI2
aI0
aI0
aI0
aI2
aI2
aI4
aI2
aa(lp2375
I0
aI0
aI0
aI2
aI0
aI0
aI2
aI0
aI0
aI0
aI4
aI2
aI0
aI0
aI2
aI4
aasS'sbox'
p2376
(lp2377
I12
aI10
aI13
aI3
aI14
aI11
aI15
aI7
aI8
aI9
aI1
aI5
aI0
aI2
aI4
aI6
asg2355
g227
sba(iclusterfk.Propagation
XORStep
p2378
(dp2379
g2353
g2034
sg2354
g1693
sg2355
g1203
sba(iclusterfk.Propagation
PermutationStep
p2380
(dp2381
g2354
g526
sS'perm'
p2382
(I0
I11
I6
I13
I10
I1
I12
I7
I5
I14
I3
I8
I15
I4
I9
I2
tp2383
sg2355
g1693
sba(iclusterfk.Propagation
MixColStep
p2384
(dp2385
g2354
g184
sg2355
g526
sba(iclusterfk.Propagation
SBOXStep
p2386
(dp2387
g2354
g1332
sg2358
(lp2388
(lp2389
I16
aI0
aI0
aI0
aI0
aI0
aI0
aI0
aI0
aI0
aI0
aI0
aI0
aI0
aI0
aI0
aa(lp2390
I0
aI2
aI4
aI0
aI2
aI2
aI2
aI0
aI2
aI0
aI0
aI0
aI0
aI0
aI2
aI0
aa(lp2391
I0
aI4
aI0
aI0
aI4
aI0
aI0
aI0
aI0
aI4
aI0
aI0
aI4
aI0
aI0
aI0
aa(lp2392
I0
aI0
aI0
aI0
aI2
aI0
aI4
aI2
aI2
aI2
aI0
aI0
aI0
aI2
aI0
aI2
aa(lp2393
I0
aI2
aI4
aI2
aI2
aI2
aI0
aI0
aI2
aI0
aI0
aI2
aI0
aI0
aI0
aI0
aa(lp2394
I0
aI2
aI0
aI0
aI2
aI0
aI0
aI4
aI0
aI2
aI4
aI0
aI2
aI0
aI0
aI0
aa(lp2395
I0
aI2
aI0
aI4
aI0
aI0
aI0
aI2
aI2
aI0
aI0
aI0
aI2
aI2
aI0
aI2
aa(lp2396
I0
aI0
aI0
aI2
aI0
aI4
aI2
aI0
aI0
aI0
aI0
aI2
aI0
aI4
aI2
aI0
aa(lp2397
I0
aI2
aI0
aI2
aI2
aI0
aI2
aI0
aI0
aI2
aI0
aI2
aI2
aI0
aI2
aI0
aa(lp2398
I0
aI0
aI4
aI2
aI0
aI2
aI0
aI0
aI2
aI2
aI0
aI2
aI2
aI0
aI0
aI0
aa(lp2399
I0
aI0
aI0
aI0
aI0
aI4
aI0
aI0
aI0
aI0
aI4
aI0
aI0
aI4
aI0
aI4
aa(lp2400
I0
aI0
aI0
aI0
aI2
aI0
aI0
aI2
aI2
aI2
aI0
aI4
aI0
aI2
aI0
aI2
aa(lp2401
I0
aI0
aI4
aI0
aI0
aI2
aI2
aI0
aI2
aI2
aI0
aI0
aI2
aI0
aI2
aI0
aa(lp2402
I0
aI0
aI0
aI2
aI0
aI0
aI2
aI4
aI0
aI0
aI4
aI2
aI0
aI0
aI2
aI0
aa(lp2403
I0
aI2
aI0
aI0
aI0
aI0
aI0
aI2
aI2
aI0
aI0
aI0
aI2
aI2
aI4
aI2
aa(lp2404
I0
aI0
aI0
aI2
aI0
aI0
aI2
aI0
aI0
aI0
aI4
aI2
aI0
aI0
aI2
aI4
aasg2376
g2377
sg2355
g184
sba(iclusterfk.Propagation
XORStep
p2405
(dp2406
g2353
g1905
sg2354
g1661
sg2355
g1332
sba(iclusterfk.Propagation
PermutationStep
p2407
(dp2408
g2354
g607
sg2382
g2383
sg2355
g1661
sba(iclusterfk.Propagation
MixColStep
p2409
(dp2410
g2354
g141
sg2355
g607
sba(iclusterfk.Propagation
SBOXStep
p2411
(dp2412
g2354
g1289
sg2358
(lp2413
(lp2414
I16
aI0
aI0
aI0
aI0
aI0
aI0
aI0
aI0
aI0
aI0
aI0
aI0
aI0
aI0
aI0
aa(lp2415
I0
aI2
aI4
aI0
aI2
aI2
aI2
aI0
aI2
aI0
aI0
aI0
aI0
aI0
aI2
aI0
aa(lp2416
I0
aI4
aI0
aI0
aI4
aI0
aI0
aI0
aI0
aI4
aI0
aI0
aI4
aI0
aI0
aI0
aa(lp2417
I0
aI0
aI0
aI0
aI2
aI0
aI4
aI2
aI2
aI2
aI0
aI0
aI0
aI2
aI0
aI2
aa(lp2418
I0
aI2
aI4
aI2
aI2
aI2
aI0
aI0
aI2
aI0
aI0
aI2
aI0
aI0
aI0
aI0
aa(lp2419
I0
aI2
aI0
aI0
aI2
aI0
aI0
aI4
aI0
aI2
aI4
aI0
aI2
aI0
aI0
aI0
aa(lp2420
I0
aI2
aI0
aI4
aI0
aI0
aI0
aI2
aI2
aI0
aI0
aI0
aI2
aI2
aI0
aI2
aa(lp2421
I0
aI0
aI0
aI2
aI0
aI4
aI2
aI0
aI0
aI0
aI0
aI2
aI0
aI4
aI2
aI0
aa(lp2422
I0
aI2
aI0
aI2
aI2
aI0
aI2
aI0
aI0
aI2
aI0
aI2
aI2
aI0
aI2
aI0
aa(lp2423
I0
aI0
aI4
aI2
aI0
aI2
aI0
aI0
aI2
aI2
aI0
aI2
aI2
aI0
aI0
aI0
aa(lp2424
I0
aI0
aI0
aI0
aI0
aI4
aI0
aI0
aI0
aI0
aI4
aI0
aI0
aI4
aI0
aI4
aa(lp2425
I0
aI0
aI0
aI0
aI2
aI0
aI0
aI2
aI2
aI2
aI0
aI4
aI0
aI2
aI0
aI2
aa(lp2426
I0
aI0
aI4
aI0
aI0
aI2
aI2
aI0
aI2
aI2
aI0
aI0
aI2
aI0
aI2
aI0
aa(lp2427
I0
aI0
aI0
aI2
aI0
aI0
aI2
aI4
aI0
aI0
aI4
aI2
aI0
aI0
aI2
aI0
aa(lp2428
I0
aI2
aI0
aI0
aI0
aI0
aI0
aI2
aI2
aI0
aI0
aI0
aI2
aI2
aI4
aI2
aa(lp2429
I0
aI0
aI0
aI2
aI0
aI0
aI2
aI0
aI0
aI0
aI4
aI2
aI0
aI0
aI2
aI4
aasg2376
g2377
sg2355
g141
sba(iclusterfk.Propagation
XORStep
p2430
(dp2431
g2353
g1948
sg2354
g1680
sg2355
g1289
sba(iclusterfk.Propagation
PermutationStep
p2432
(dp2433
g2354
g565
sg2382
g2383
sg2355
g1680
sba(iclusterfk.Propagation
MixColStep
p2434
(dp2435
g2354
g98
sg2355
g565
sba(iclusterfk.Propagation
SBOXStep
p2436
(dp2437
g2354
g1418
sg2358
(lp2438
(lp2439
I16
aI0
aI0
aI0
aI0
aI0
aI0
aI0
aI0
aI0
aI0
aI0
aI0
aI0
aI0
aI0
aa(lp2440
I0
aI2
aI4
aI0
aI2
aI2
aI2
aI0
aI2
aI0
aI0
aI0
aI0
aI0
aI2
aI0
aa(lp2441
I0
aI4
aI0
aI0
aI4
aI0
aI0
aI0
aI0
aI4
aI0
aI0
aI4
aI0
aI0
aI0
aa(lp2442
I0
aI0
aI0
aI0
aI2
aI0
aI4
aI2
aI2
aI2
aI0
aI0
aI0
aI2
aI0
aI2
aa(lp2443
I0
aI2
aI4
aI2
aI2
aI2
aI0
aI0
aI2
aI0
aI0
aI2
aI0
aI0
aI0
aI0
aa(lp2444
I0
aI2
aI0
aI0
aI2
aI0
aI0
aI4
aI0
aI2
aI4
aI0
aI2
aI0
aI0
aI0
aa(lp2445
I0
aI2
aI0
aI4
aI0
aI0
aI0
aI2
aI2
aI0
aI0
aI0
aI2
aI2
aI0
aI2
aa(lp2446
I0
aI0
aI0
aI2
aI0
aI4
aI2
aI0
aI0
aI0
aI0
aI2
aI0
aI4
aI2
aI0
aa(lp2447
I0
aI2
aI0
aI2
aI2
aI0
aI2
aI0
aI0
aI2
aI0
aI2
aI2
aI0
aI2
aI0
aa(lp2448
I0
aI0
aI4
aI2
aI0
aI2
aI0
aI0
aI2
aI2
aI0
aI2
aI2
aI0
aI0
aI0
aa(lp2449
I0
aI0
aI0
aI0
aI0
aI4
aI0
aI0
aI0
aI0
aI4
aI0
aI0
aI4
aI0
aI4
aa(lp2450
I0
aI0
aI0
aI0
aI2
aI0
aI0
aI2
aI2
aI2
aI0
aI4
aI0
aI2
aI0
aI2
aa(lp2451
I0
aI0
aI4
aI0
aI0
aI2
aI2
aI0
aI2
aI2
aI0
aI0
aI2
aI0
aI2
aI0
aa(lp2452
I0
aI0
aI0
aI2
aI0
aI0
aI2
aI4
aI0
aI0
aI4
aI2
aI0
aI0
aI2
aI0
aa(lp2453
I0
aI2
aI0
aI0
aI0
aI0
aI0
aI2
aI2
aI0
aI0
aI0
aI2
aI2
aI4
aI2
aa(lp2454
I0
aI0
aI0
aI2
aI0
aI0
aI2
aI0
aI0
aI0
aI4
aI2
aI0
aI0
aI2
aI4
aasg2376
g2377
sg2355
g98
sba(iclusterfk.Propagation
XORStep
p2455
(dp2456
g2353
g1835
sg2354
g1768
sg2355
g1418
sba(iclusterfk.Propagation
PermutationStep
p2457
(dp2458
g2354
g442
sg2382
g2383
sg2355
g1768
sba(iclusterfk.Propagation
MixColStep
p2459
(dp2460
g2354
g356
sg2355
g442
sba(iclusterfk.Propagation
SBOXStep
p2461
(dp2462
g2354
g1375
sg2358
(lp2463
(lp2464
I16
aI0
aI0
aI0
aI0
aI0
aI0
aI0
aI0
aI0
aI0
aI0
aI0
aI0
aI0
aI0
aa(lp2465
I0
aI2
aI4
aI0
aI2
aI2
aI2
aI0
aI2
aI0
aI0
aI0
aI0
aI0
aI2
aI0
aa(lp2466
I0
aI4
aI0
aI0
aI4
aI0
aI0
aI0
aI0
aI4
aI0
aI0
aI4
aI0
aI0
aI0
aa(lp2467
I0
aI0
aI0
aI0
aI2
aI0
aI4
aI2
aI2
aI2
aI0
aI0
aI0
aI2
aI0
aI2
aa(lp2468
I0
aI2
aI4
aI2
aI2
aI2
aI0
aI0
aI2
aI0
aI0
aI2
aI0
aI0
aI0
aI0
aa(lp2469
I0
aI2
aI0
aI0
aI2
aI0
aI0
aI4
aI0
aI2
aI4
aI0
aI2
aI0
aI0
aI0
aa(lp2470
I0
aI2
aI0
aI4
aI0
aI0
aI0
aI2
aI2
aI0
aI0
aI0
aI2
aI2
aI0
aI2
aa(lp2471
I0
aI0
aI0
aI2
aI0
aI4
aI2
aI0
aI0
aI0
aI0
aI2
aI0
aI4
aI2
aI0
aa(lp2472
I0
aI2
aI0
aI2
aI2
aI0
aI2
aI0
aI0
aI2
aI0
aI2
aI2
aI0
aI2
aI0
aa(lp2473
I0
aI0
aI4
aI2
aI0
aI2
aI0
aI0
aI2
aI2
aI0
aI2
aI2
aI0
aI0
aI0
aa(lp2474
I0
aI0
aI0
aI0
aI0
aI4
aI0
aI0
aI0
aI0
aI4
aI0
aI0
aI4
aI0
aI4
aa(lp2475
I0
aI0
aI0
aI0
aI2
aI0
aI0
aI2
aI2
aI2
aI0
aI4
aI0
aI2
aI0
aI2
aa(lp2476
I0
aI0
aI4
aI0
aI0
aI2
aI2
aI0
aI2
aI2
aI0
aI0
aI2
aI0
aI2
aI0
aa(lp2477
I0
aI0
aI0
aI2
aI0
aI0
aI2
aI4
aI0
aI0
aI4
aI2
aI0
aI0
aI2
aI0
aa(lp2478
I0
aI2
aI0
aI0
aI0
aI0
aI0
aI2
aI2
aI0
aI0
aI0
aI2
aI2
aI4
aI2
aa(lp2479
I0
aI0
aI0
aI2
aI0
aI0
aI2
aI0
aI0
aI0
aI4
aI2
aI0
aI0
aI2
aI4
aasg2376
g2377
sg2355
g356
sba(iclusterfk.Propagation
XORStep
p2480
(dp2481
g2353
g1878
sg2354
g1781
sg2355
g1375
sba(iclusterfk.Propagation
PermutationStep
p2482
(dp2483
g2354
g399
sg2382
g2383
sg2355
g1781
sba(iclusterfk.Propagation
MixColStep
p2484
(dp2485
g2354
g313
sg2355
g399
sba(iclusterfk.Propagation
SBOXStep
p2486
(dp2487
g2354
g1503
sg2358
(lp2488
(lp2489
I16
aI0
aI0
aI0
aI0
aI0
aI0
aI0
aI0
aI0
aI0
aI0
aI0
aI0
aI0
aI0
aa(lp2490
I0
aI2
aI4
aI0
aI2
aI2
aI2
aI0
aI2
aI0
aI0
aI0
aI0
aI0
aI2
aI0
aa(lp2491
I0
aI4
aI0
aI0
aI4
aI0
aI0
aI0
aI0
aI4
aI0
aI0
aI4
aI0
aI0
aI0
aa(lp2492
I0
aI0
aI0
aI0
aI2
aI0
aI4
aI2
aI2
aI2
aI0
aI0
aI0
aI2
aI0
aI2
aa(lp2493
I0
aI2
aI4
aI2
aI2
aI2
aI0
aI0
aI2
aI0
aI0
aI2
aI0
aI0
aI0
aI0
aa(lp2494
I0
aI2
aI0
aI0
aI2
aI0
aI0
aI4
aI0
aI2
aI4
aI0
aI2
aI0
aI0
aI0
aa(lp2495
I0
aI2
aI0
aI4
aI0
aI0
aI0
aI2
aI2
aI0
aI0
aI0
aI2
aI2
aI0
aI2
aa(lp2496
I0
aI0
aI0
aI2
aI0
aI4
aI2
aI0
aI0
aI0
aI0
aI2
aI0
aI4
aI2
aI0
aa(lp2497
I0
aI2
aI0
aI2
aI2
aI0
aI2
aI0
aI0
aI2
aI0
aI2
aI2
aI0
aI2
aI0
aa(lp2498
I0
aI0
aI4
aI2
aI0
aI2
aI0
aI0
aI2
aI2
aI0
aI2
aI2
aI0
aI0
aI0
aa(lp2499
I0
aI0
aI0
aI0
aI0
aI4
aI0
aI0
aI0
aI0
aI4
aI0
aI0
aI4
aI0
aI4
aa(lp2500
I0
aI0
aI0
aI0
aI2
aI0
aI0
aI2
aI2
aI2
aI0
aI4
aI0
aI2
aI0
aI2
aa(lp2501
I0
aI0
aI4
aI0
aI0
aI2
aI2
aI0
aI2
aI2
aI0
aI0
aI2
aI0
aI2
aI0
aa(lp2502
I0
aI0
aI0
aI2
aI0
aI0
aI2
aI4
aI0
aI0
aI4
aI2
aI0
aI0
aI2
aI0
aa(lp2503
I0
aI2
aI0
aI0
aI0
aI0
aI0
aI2
aI2
aI0
aI0
aI0
aI2
aI2
aI4
aI2
aa(lp2504
I0
aI0
aI0
aI2
aI0
aI0
aI2
aI0
aI0
aI0
aI4
aI2
aI0
aI0
aI2
aI4
aasg2376
g2377
sg2355
g313
sba(iclusterfk.Propagation
XORStep
p2505
(dp2506
g2353
g1792
sg2354
g1712
sg2355
g1503
sba(iclusterfk.Propagation
PermutationStep
p2507
(dp2508
g2354
g484
sg2382
g2383
sg2355
g1712
sba(iclusterfk.Propagation
MixColStep
p2509
(dp2510
g2354
g270
sg2355
g484
sba(iclusterfk.Propagation
SBOXStep
p2511
(dp2512
g2354
g1461
sg2358
(lp2513
(lp2514
I16
aI0
aI0
aI0
aI0
aI0
aI0
aI0
aI0
aI0
aI0
aI0
aI0
aI0
aI0
aI0
aa(lp2515
I0
aI2
aI4
aI0
aI2
aI2
aI2
aI0
aI2
aI0
aI0
aI0
aI0
aI0
aI2
aI0
aa(lp2516
I0
aI4
aI0
aI0
aI4
aI0
aI0
aI0
aI0
aI4
aI0
aI0
aI4
aI0
aI0
aI0
aa(lp2517
I0
aI0
aI0
aI0
aI2
aI0
aI4
aI2
aI2
aI2
aI0
aI0
aI0
aI2
aI0
aI2
aa(lp2518
I0
aI2
aI4
aI2
aI2
aI2
aI0
aI0
aI2
aI0
aI0
aI2
aI0
aI0
aI0
aI0
aa(lp2519
I0
aI2
aI0
aI0
aI2
aI0
aI0
aI4
aI0
aI2
aI4
aI0
aI2
aI0
aI0
aI0
aa(lp2520
I0
aI2
aI0
aI4
aI0
aI0
aI0
aI2
aI2
aI0
aI0
aI0
aI2
aI2
aI0
aI2
aa(lp2521
I0
aI0
aI0
aI2
aI0
aI4
aI2
aI0
aI0
aI0
aI0
aI2
aI0
aI4
aI2
aI0
aa(lp2522
I0
aI2
aI0
aI2
aI2
aI0
aI2
aI0
aI0
aI2
aI0
aI2
aI2
aI0
aI2
aI0
aa(lp2523
I0
aI0
aI4
aI2
aI0
aI2
aI0
aI0
aI2
aI2
aI0
aI2
aI2
aI0
aI0
aI0
aa(lp2524
I0
aI0
aI0
aI0
aI0
aI4
aI0
aI0
aI0
aI0
aI4
aI0
aI0
aI4
aI0
aI4
aa(lp2525
I0
aI0
aI0
aI0
aI2
aI0
aI0
aI2
aI2
aI2
aI0
aI4
aI0
aI2
aI0
aI2
aa(lp2526
I0
aI0
aI4
aI0
aI0
aI2
aI2
aI0
aI2
aI2
aI0
aI0
aI2
aI0
aI2
aI0
aa(lp2527
I0
aI0
aI0
aI2
aI0
aI0
aI2
aI4
aI0
aI0
aI4
aI2
aI0
aI0
aI2
aI0
aa(lp2528
I0
aI2
aI0
aI0
aI0
aI0
aI0
aI2
aI2
aI0
aI0
aI0
aI2
aI2
aI4
aI2
aa(lp2529
I0
aI0
aI0
aI2
aI0
aI0
aI2
aI0
aI0
aI0
aI4
aI2
aI0
aI0
aI2
aI4
aasg2376
g2377
sg2355
g270
sba(iclusterfk.Propagation
MixColStep
p2530
(dp2531
g2354
g2104
sg2355
g1461
sba(iclusterfk.Propagation
PermutationStep
p2532
(dp2533
g2354
g2034
sg2382
(I6
I5
I14
I15
I0
I1
I2
I3
I7
I12
I13
I4
I8
I9
I10
I11
tp2534
sg2355
g1991
sba(iclusterfk.Propagation
PermutationStep
p2535
(dp2536
g2354
g1905
sg2382
g2534
sg2355
g2034
sba(iclusterfk.Propagation
PermutationStep
p2537
(dp2538
g2354
g1948
sg2382
g2534
sg2355
g1905
sba(iclusterfk.Propagation
PermutationStep
p2539
(dp2540
g2354
g1835
sg2382
g2534
sg2355
g1948
sba(iclusterfk.Propagation
PermutationStep
p2541
(dp2542
g2354
g1878
sg2382
g2534
sg2355
g1835
sba(iclusterfk.Propagation
PermutationStep
p2543
(dp2544
g2354
g1792
sg2382
g2534
sg2355
g1878
sba(iclusterfk.Propagation
XORStep
p2545
(dp2546
g2353
g1991
sg2354
g1160
sg2355
g2147
sba(iclusterfk.Propagation
SBOXStep
p2547
(dp2548
g2354
g859
sg2358
(lp2549
(lp2550
I16
aI0
aI0
aI0
aI0
aI0
aI0
aI0
aI0
aI0
aI0
aI0
aI0
aI0
aI0
aI0
aa(lp2551
I0
aI2
aI4
aI0
aI2
aI2
aI2
aI0
aI2
aI0
aI0
aI0
aI0
aI0
aI2
aI0
aa(lp2552
I0
aI4
aI0
aI0
aI4
aI0
aI0
aI0
aI0
aI4
aI0
aI0
aI4
aI0
aI0
aI0
aa(lp2553
I0
aI0
aI0
aI0
aI2
aI0
aI4
aI2
aI2
aI2
aI0
aI0
aI0
aI2
aI0
aI2
aa(lp2554
I0
aI2
aI4
aI2
aI2
aI2
aI0
aI0
aI2
aI0
aI0
aI2
aI0
aI0
aI0
aI0
aa(lp2555
I0
aI2
aI0
aI0
aI2
aI0
aI0
aI4
aI0
aI2
aI4
aI0
aI2
aI0
aI0
aI0
aa(lp2556
I0
aI2
aI0
aI4
aI0
aI0
aI0
aI2
aI2
aI0
aI0
aI0
aI2
aI2
aI0
aI2
aa(lp2557
I0
aI0
aI0
aI2
aI0
aI4
aI2
aI0
aI0
aI0
aI0
aI2
aI0
aI4
aI2
aI0
aa(lp2558
I0
aI2
aI0
aI2
aI2
aI0
aI2
aI0
aI0
aI2
aI0
aI2
aI2
aI0
aI2
aI0
aa(lp2559
I0
aI0
aI4
aI2
aI0
aI2
aI0
aI0
aI2
aI2
aI0
aI2
aI2
aI0
aI0
aI0
aa(lp2560
I0
aI0
aI0
aI0
aI0
aI4
aI0
aI0
aI0
aI0
aI4
aI0
aI0
aI4
aI0
aI4
aa(lp2561
I0
aI0
aI0
aI0
aI2
aI0
aI0
aI2
aI2
aI2
aI0
aI4
aI0
aI2
aI0
aI2
aa(lp2562
I0
aI0
aI4
aI0
aI0
aI2
aI2
aI0
aI2
aI2
aI0
aI0
aI2
aI0
aI2
aI0
aa(lp2563
I0
aI0
aI0
aI2
aI0
aI0
aI2
aI4
aI0
aI0
aI4
aI2
aI0
aI0
aI2
aI0
aa(lp2564
I0
aI2
aI0
aI0
aI0
aI0
aI0
aI2
aI2
aI0
aI0
aI0
aI2
aI2
aI4
aI2
aa(lp2565
I0
aI0
aI0
aI2
aI0
aI0
aI2
aI0
aI0
aI0
aI4
aI2
aI0
aI0
aI2
aI4
aasg2376
g2377
sg2355
g1160
sba(iclusterfk.Propagation
XORStep
p2566
(dp2567
g2353
g2034
sg2354
g1725
sg2355
g859
sba(iclusterfk.Propagation
PermutationStep
p2568
(dp2569
g2354
g2289
sg2382
g2383
sg2355
g1725
sba(iclusterfk.Propagation
MixColStep
p2570
(dp2571
g2354
g945
sg2355
g2289
sba(iclusterfk.Propagation
SBOXStep
p2572
(dp2573
g2354
g2190
sg2358
(lp2574
(lp2575
I16
aI0
aI0
aI0
aI0
aI0
aI0
aI0
aI0
aI0
aI0
aI0
aI0
aI0
aI0
aI0
aa(lp2576
I0
aI2
aI4
aI0
aI2
aI2
aI2
aI0
aI2
aI0
aI0
aI0
aI0
aI0
aI2
aI0
aa(lp2577
I0
aI4
aI0
aI0
aI4
aI0
aI0
aI0
aI0
aI4
aI0
aI0
aI4
aI0
aI0
aI0
aa(lp2578
I0
aI0
aI0
aI0
aI2
aI0
aI4
aI2
aI2
aI2
aI0
aI0
aI0
aI2
aI0
aI2
aa(lp2579
I0
aI2
aI4
aI2
aI2
aI2
aI0
aI0
aI2
aI0
aI0
aI2
aI0
aI0
aI0
aI0
aa(lp2580
I0
aI2
aI0
aI0
aI2
aI0
aI0
aI4
aI0
aI2
aI4
aI0
aI2
aI0
aI0
aI0
aa(lp2581
I0
aI2
aI0
aI4
aI0
aI0
aI0
aI2
aI2
aI0
aI0
aI0
aI2
aI2
aI0
aI2
aa(lp2582
I0
aI0
aI0
aI2
aI0
aI4
aI2
aI0
aI0
aI0
aI0
aI2
aI0
aI4
aI2
aI0
aa(lp2583
I0
aI2
aI0
aI2
aI2
aI0
aI2
aI0
aI0
aI2
aI0
aI2
aI2
aI0
aI2
aI0
aa(lp2584
I0
aI0
aI4
aI2
aI0
aI2
aI0
aI0
aI2
aI2
aI0
aI2
aI2
aI0
aI0
aI0
aa(lp2585
I0
aI0
aI0
aI0
aI0
aI4
aI0
aI0
aI0
aI0
aI4
aI0
aI0
aI4
aI0
aI4
aa(lp2586
I0
aI0
aI0
aI0
aI2
aI0
aI0
aI2
aI2
aI2
aI0
aI4
aI0
aI2
aI0
aI2
aa(lp2587
I0
aI0
aI4
aI0
aI0
aI2
aI2
aI0
aI2
aI2
aI0
aI0
aI2
aI0
aI2
aI0
aa(lp2588
I0
aI0
aI0
aI2
aI0
aI0
aI2
aI4
aI0
aI0
aI4
aI2
aI0
aI0
aI2
aI0
aa(lp2589
I0
aI2
aI0
aI0
aI0
aI0
aI0
aI2
aI2
aI0
aI0
aI0
aI2
aI2
aI4
aI2
aa(lp2590
I0
aI0
aI0
aI2
aI0
aI0
aI2
aI0
aI0
aI0
aI4
aI2
aI0
aI0
aI2
aI4
aasg2376
g2377
sg2355
g945
sba(iclusterfk.Propagation
XORStep
p2591
(dp2592
g2353
g1905
sg2354
g1117
sg2355
g2190
sba(iclusterfk.Propagation
PermutationStep
p2593
(dp2594
g2354
g2320
sg2382
g2383
sg2355
g1117
sba(iclusterfk.Propagation
MixColStep
p2595
(dp2596
g2354
g988
sg2355
g2320
sba(iclusterfk.Propagation
SBOXStep
p2597
(dp2598
g2354
g773
sg2358
(lp2599
(lp2600
I16
aI0
aI0
aI0
aI0
aI0
aI0
aI0
aI0
aI0
aI0
aI0
aI0
aI0
aI0
aI0
aa(lp2601
I0
aI2
aI4
aI0
aI2
aI2
aI2
aI0
aI2
aI0
aI0
aI0
aI0
aI0
aI2
aI0
aa(lp2602
I0
aI4
aI0
aI0
aI4
aI0
aI0
aI0
aI0
aI4
aI0
aI0
aI4
aI0
aI0
aI0
aa(lp2603
I0
aI0
aI0
aI0
aI2
aI0
aI4
aI2
aI2
aI2
aI0
aI0
aI0
aI2
aI0
aI2
aa(lp2604
I0
aI2
aI4
aI2
aI2
aI2
aI0
aI0
aI2
aI0
aI0
aI2
aI0
aI0
aI0
aI0
aa(lp2605
I0
aI2
aI0
aI0
aI2
aI0
aI0
aI4
aI0
aI2
aI4
aI0
aI2
aI0
aI0
aI0
aa(lp2606
I0
aI2
aI0
aI4
aI0
aI0
aI0
aI2
aI2
aI0
aI0
aI0
aI2
aI2
aI0
aI2
aa(lp2607
I0
aI0
aI0
aI2
aI0
aI4
aI2
aI0
aI0
aI0
aI0
aI2
aI0
aI4
aI2
aI0
aa(lp2608
I0
aI2
aI0
aI2
aI2
aI0
aI2
aI0
aI0
aI2
aI0
aI2
aI2
aI0
aI2
aI0
aa(lp2609
I0
aI0
aI4
aI2
aI0
aI2
aI0
aI0
aI2
aI2
aI0
aI2
aI2
aI0
aI0
aI0
aa(lp2610
I0
aI0
aI0
aI0
aI0
aI4
aI0
aI0
aI0
aI0
aI4
aI0
aI0
aI4
aI0
aI4
aa(lp2611
I0
aI0
aI0
aI0
aI2
aI0
aI0
aI2
aI2
aI2
aI0
aI4
aI0
aI2
aI0
aI2
aa(lp2612
I0
aI0
aI4
aI0
aI0
aI2
aI2
aI0
aI2
aI2
aI0
aI0
aI2
aI0
aI2
aI0
aa(lp2613
I0
aI0
aI0
aI2
aI0
aI0
aI2
aI4
aI0
aI0
aI4
aI2
aI0
aI0
aI2
aI0
aa(lp2614
I0
aI2
aI0
aI0
aI0
aI0
aI0
aI2
aI2
aI0
aI0
aI0
aI2
aI2
aI4
aI2
aa(lp2615
I0
aI0
aI0
aI2
aI0
aI0
aI2
aI0
aI0
aI0
aI4
aI2
aI0
aI0
aI2
aI4
aasg2376
g2377
sg2355
g988
sba(iclusterfk.Propagation
XORStep
p2616
(dp2617
g2353
g1948
sg2354
g902
sg2355
g773
sba(iclusterfk.Propagation
PermutationStep
p2618
(dp2619
g2354
g2233
sg2382
g2383
sg2355
g902
sba(iclusterfk.Propagation
MixColStep
p2620
(dp2621
g2354
g1031
sg2355
g2233
sba(iclusterfk.Propagation
SBOXStep
p2622
(dp2623
g2354
g816
sg2358
(lp2624
(lp2625
I16
aI0
aI0
aI0
aI0
aI0
aI0
aI0
aI0
aI0
aI0
aI0
aI0
aI0
aI0
aI0
aa(lp2626
I0
aI2
aI4
aI0
aI2
aI2
aI2
aI0
aI2
aI0
aI0
aI0
aI0
aI0
aI2
aI0
aa(lp2627
I0
aI4
aI0
aI0
aI4
aI0
aI0
aI0
aI0
aI4
aI0
aI0
aI4
aI0
aI0
aI0
aa(lp2628
I0
aI0
aI0
aI0
aI2
aI0
aI4
aI2
aI2
aI2
aI0
aI0
aI0
aI2
aI0
aI2
aa(lp2629
I0
aI2
aI4
aI2
aI2
aI2
aI0
aI0
aI2
aI0
aI0
aI2
aI0
aI0
aI0
aI0
aa(lp2630
I0
aI2
aI0
aI0
aI2
aI0
aI0
aI4
aI0
aI2
aI4
aI0
aI2
aI0
aI0
aI0
aa(lp2631
I0
aI2
aI0
aI4
aI0
aI0
aI0
aI2
aI2
aI0
aI0
aI0
aI2
aI2
aI0
aI2
aa(lp2632
I0
aI0
aI0
aI2
aI0
aI4
aI2
aI0
aI0
aI0
aI0
aI2
aI0
aI4
aI2
aI0
aa(lp2633
I0
aI2
aI0
aI2
aI2
aI0
aI2
aI0
aI0
aI2
aI0
aI2
aI2
aI0
aI2
aI0
aa(lp2634
I0
aI0
aI4
aI2
aI0
aI2
aI0
aI0
aI2
aI2
aI0
aI2
aI2
aI0
aI0
aI0
aa(lp2635
I0
aI0
aI0
aI0
aI0
aI4
aI0
aI0
aI0
aI0
aI4
aI0
aI0
aI4
aI0
aI4
aa(lp2636
I0
aI0
aI0
aI0
aI2
aI0
aI0
aI2
aI2
aI2
aI0
aI4
aI0
aI2
aI0
aI2
aa(lp2637
I0
aI0
aI4
aI0
aI0
aI2
aI2
aI0
aI2
aI2
aI0
aI0
aI2
aI0
aI2
aI0
aa(lp2638
I0
aI0
aI0
aI2
aI0
aI0
aI2
aI4
aI0
aI0
aI4
aI2
aI0
aI0
aI2
aI0
aa(lp2639
I0
aI2
aI0
aI0
aI0
aI0
aI0
aI2
aI2
aI0
aI0
aI0
aI2
aI2
aI4
aI2
aa(lp2640
I0
aI0
aI0
aI2
aI0
aI0
aI2
aI0
aI0
aI0
aI4
aI2
aI0
aI0
aI2
aI4
aasg2376
g2377
sg2355
g1031
sba(iclusterfk.Propagation
XORStep
p2641
(dp2642
g2353
g1835
sg2354
g730
sg2355
g816
sba(iclusterfk.Propagation
PermutationStep
p2643
(dp2644
g2354
g2261
sg2382
g2383
sg2355
g730
sba(iclusterfk.Propagation
MixColStep
p2645
(dp2646
g2354
g1074
sg2355
g2261
sba(iclusterfk.Propagation
SBOXStep
p2647
(dp2648
g2354
g1546
sg2358
(lp2649
(lp2650
I16
aI0
aI0
aI0
aI0
aI0
aI0
aI0
aI0
aI0
aI0
aI0
aI0
aI0
aI0
aI0
aa(lp2651
I0
aI2
aI4
aI0
aI2
aI2
aI2
aI0
aI2
aI0
aI0
aI0
aI0
aI0
aI2
aI0
aa(lp2652
I0
aI4
aI0
aI0
aI4
aI0
aI0
aI0
aI0
aI4
aI0
aI0
aI4
aI0
aI0
aI0
aa(lp2653
I0
aI0
aI0
aI0
aI2
aI0
aI4
aI2
aI2
aI2
aI0
aI0
aI0
aI2
aI0
aI2
aa(lp2654
I0
aI2
aI4
aI2
aI2
aI2
aI0
aI0
aI2
aI0
aI0
aI2
aI0
aI0
aI0
aI0
aa(lp2655
I0
aI2
aI0
aI0
aI2
aI0
aI0
aI4
aI0
aI2
aI4
aI0
aI2
aI0
aI0
aI0
aa(lp2656
I0
aI2
aI0
aI4
aI0
aI0
aI0
aI2
aI2
aI0
aI0
aI0
aI2
aI2
aI0
aI2
aa(lp2657
I0
aI0
aI0
aI2
aI0
aI4
aI2
aI0
aI0
aI0
aI0
aI2
aI0
aI4
aI2
aI0
aa(lp2658
I0
aI2
aI0
aI2
aI2
aI0
aI2
aI0
aI0
aI2
aI0
aI2
aI2
aI0
aI2
aI0
aa(lp2659
I0
aI0
aI4
aI2
aI0
aI2
aI0
aI0
aI2
aI2
aI0
aI2
aI2
aI0
aI0
aI0
aa(lp2660
I0
aI0
aI0
aI0
aI0
aI4
aI0
aI0
aI0
aI0
aI4
aI0
aI0
aI4
aI0
aI4
aa(lp2661
I0
aI0
aI0
aI0
aI2
aI0
aI0
aI2
aI2
aI2
aI0
aI4
aI0
aI2
aI0
aI2
aa(lp2662
I0
aI0
aI4
aI0
aI0
aI2
aI2
aI0
aI2
aI2
aI0
aI0
aI2
aI0
aI2
aI0
aa(lp2663
I0
aI0
aI0
aI2
aI0
aI0
aI2
aI4
aI0
aI0
aI4
aI2
aI0
aI0
aI2
aI0
aa(lp2664
I0
aI2
aI0
aI0
aI0
aI0
aI0
aI2
aI2
aI0
aI0
aI0
aI2
aI2
aI4
aI2
aa(lp2665
I0
aI0
aI0
aI2
aI0
aI0
aI2
aI0
aI0
aI0
aI4
aI2
aI0
aI0
aI2
aI4
aasg2376
g2377
sg2355
g1074
sba(iclusterfk.Propagation
XORStep
p2666
(dp2667
g2353
g1878
sg2354
g2077
sg2355
g1546
sba(iclusterfk.Propagation
PermutationStep
p2668
(dp2669
g2354
g645
sg2382
g2383
sg2355
g2077
sba(iclusterfk.Propagation
MixColStep
p2670
(dp2671
g2354
g6
sg2355
g645
sba(iclusterfk.Propagation
SBOXStep
p2672
(dp2673
g2354
g1589
sg2358
(lp2674
(lp2675
I16
aI0
aI0
aI0
aI0
aI0
aI0
aI0
aI0
aI0
aI0
aI0
aI0
aI0
aI0
aI0
aa(lp2676
I0
aI2
aI4
aI0
aI2
aI2
aI2
aI0
aI2
aI0
aI0
aI0
aI0
aI0
aI2
aI0
aa(lp2677
I0
aI4
aI0
aI0
aI4
aI0
aI0
aI0
aI0
aI4
aI0
aI0
aI4
aI0
aI0
aI0
aa(lp2678
I0
aI0
aI0
aI0
aI2
aI0
aI4
aI2
aI2
aI2
aI0
aI0
aI0
aI2
aI0
aI2
aa(lp2679
I0
aI2
aI4
aI2
aI2
aI2
aI0
aI0
aI2
aI0
aI0
aI2
aI0
aI0
aI0
aI0
aa(lp2680
I0
aI2
aI0
aI0
aI2
aI0
aI0
aI4
aI0
aI2
aI4
aI0
aI2
aI0
aI0
aI0
aa(lp2681
I0
aI2
aI0
aI4
aI0
aI0
aI0
aI2
aI2
aI0
aI0
aI0
aI2
aI2
aI0
aI2
aa(lp2682
I0
aI0
aI0
aI2
aI0
aI4
aI2
aI0
aI0
aI0
aI0
aI2
aI0
aI4
aI2
aI0
aa(lp2683
I0
aI2
aI0
aI2
aI2
aI0
aI2
aI0
aI0
aI2
aI0
aI2
aI2
aI0
aI2
aI0
aa(lp2684
I0
aI0
aI4
aI2
aI0
aI2
aI0
aI0
aI2
aI2
aI0
aI2
aI2
aI0
aI0
aI0
aa(lp2685
I0
aI0
aI0
aI0
aI0
aI4
aI0
aI0
aI0
aI0
aI4
aI0
aI0
aI4
aI0
aI4
aa(lp2686
I0
aI0
aI0
aI0
aI2
aI0
aI0
aI2
aI2
aI2
aI0
aI4
aI0
aI2
aI0
aI2
aa(lp2687
I0
aI0
aI4
aI0
aI0
aI2
aI2
aI0
aI2
aI2
aI0
aI0
aI2
aI0
aI2
aI0
aa(lp2688
I0
aI0
aI0
aI2
aI0
aI0
aI2
aI4
aI0
aI0
aI4
aI2
aI0
aI0
aI2
aI0
aa(lp2689
I0
aI2
aI0
aI0
aI0
aI0
aI0
aI2
aI2
aI0
aI0
aI0
aI2
aI2
aI4
aI2
aa(lp2690
I0
aI0
aI0
aI2
aI0
aI0
aI2
aI0
aI0
aI0
aI4
aI2
aI0
aI0
aI2
aI4
aasg2376
g2377
sg2355
g6
sba(iclusterfk.Propagation
XORStep
p2691
(dp2692
g2353
g1792
sg2354
g1632
sg2355
g1589
sba(iclusterfk.Propagation
PermutationStep
p2693
(dp2694
g2354
g688
sg2382
g2383
sg2355
g1632
sba(iclusterfk.Propagation
MixColStep
p2695
(dp2696
g2354
g55
sg2355
g688
sba(iclusterfk.Propagation
SBOXStep
p2697
(dp2698
g2354
g2104
sg2358
(lp2699
(lp2700
I16
aI0
aI0
aI0
aI0
aI0
aI0
aI0
aI0
aI0
aI0
aI0
aI0
aI0
aI0
aI0
aa(lp2701
I0
aI2
aI4
aI0
aI2
aI2
aI2
aI0
aI2
aI0
aI0
aI0
aI0
aI0
aI2
aI0
aa(lp2702
I0
aI4
aI0
aI0
aI4
aI0
aI0
aI0
aI0
aI4
aI0
aI0
aI4
aI0
aI0
aI0
aa(lp2703
I0
aI0
aI0
aI0
aI2
aI0
aI4
aI2
aI2
aI2
aI0
aI0
aI0
aI2
aI0
aI2
aa(lp2704
I0
aI2
aI4
aI2
aI2
aI2
aI0
aI0
aI2
aI0
aI0
aI2
aI0
aI0
aI0
aI0
aa(lp2705
I0
aI2
aI0
aI0
aI2
aI0
aI0
aI4
aI0
aI2
aI4
aI0
aI2
aI0
aI0
aI0
aa(lp2706
I0
aI2
aI0
aI4
aI0
aI0
aI0
aI2
aI2
aI0
aI0
aI0
aI2
aI2
aI0
aI2
aa(lp2707
I0
aI0
aI0
aI2
aI0
aI4
aI2
aI0
aI0
aI0
aI0
aI2
aI0
aI4
aI2
aI0
aa(lp2708
I0
aI2
aI0
aI2
aI2
aI0
aI2
aI0
aI0
aI2
aI0
aI2
aI2
aI0
aI2
aI0
aa(lp2709
I0
aI0
aI4
aI2
aI0
aI2
aI0
aI0
aI2
aI2
aI0
aI2
aI2
aI0
aI0
aI0
aa(lp2710
I0
aI0
aI0
aI0
aI0
aI4
aI0
aI0
aI0
aI0
aI4
aI0
aI0
aI4
aI0
aI4
aa(lp2711
I0
aI0
aI0
aI0
aI2
aI0
aI0
aI2
aI2
aI2
aI0
aI4
aI0
aI2
aI0
aI2
aa(lp2712
I0
aI0
aI4
aI0
aI0
aI2
aI2
aI0
aI2
aI2
aI0
aI0
aI2
aI0
aI2
aI0
aa(lp2713
I0
aI0
aI0
aI2
aI0
aI0
aI2
aI4
aI0
aI0
aI4
aI2
aI0
aI0
aI2
aI0
aa(lp2714
I0
aI2
aI0
aI0
aI0
aI0
aI0
aI2
aI2
aI0
aI0
aI0
aI2
aI2
aI4
aI2
aa(lp2715
I0
aI0
aI0
aI2
aI0
aI0
aI2
aI0
aI0
aI0
aI4
aI2
aI0
aI0
aI2
aI4
aasg2376
g2377
sg2355
g55
sbasS'colorlist'
p2716
(dp2717
c__builtin__
frozenset
p2718
((lp2719
I10
atRp2720
S'#dc322f'
p2721
sg2718
((lp2722
I1
aI3
aI4
aI5
aI6
aI7
aI9
aI10
aI11
aI12
aI13
aI14
aI15
atRp2723
S'#999999'
p2724
sg2718
((lp2725
I0
aI1
aI2
aI3
aI4
aI5
aI6
aI7
aI8
aI9
aI10
aI11
aI12
aI13
aI14
aI15
atRp2726
S'#b58900'
p2727
sg2718
((lp2728
I10
aI15
aI13
aI5
atRp2729
S'#859900'
p2730
sg2718
((lp2731
I0
aI7
aI5
aI15
atRp2732
S'#2aa198'
p2733
sg2718
((lp2734
I1
aI2
aI3
aI4
aI5
aI6
aI7
aI8
aI9
aI10
aI11
aI12
aI13
aI14
aI15
atRp2735
S'#d33682'
p2736
sg2718
((lp2737
I0
aI1
aI3
aI4
aI5
aI6
aI7
aI9
aI10
aI11
aI12
aI13
aI14
aI15
atRp2738
S'#cccccc'
p2739
sg2718
((lp2740
I0
aI1
aI3
aI4
aI5
aI6
aI7
aI9
aI11
aI12
aI13
aI14
aI15
atRp2741
S'#6c71c4'
p2742
ssS'rounds'
p2743
I6
sS'probabilities'
p2744
(lp2745
(iclusterfk.Probability
FullroundStep
p2746
(dp2747
S'addstate'
p2748
g1203
sg2376
g2377
sS'P'
g2383
sg2353
g2034
sg2358
(lp2749
(lp2750
I16
aI0
aI0
aI0
aI0
aI0
aI0
aI0
aI0
aI0
aI0
aI0
aI0
aI0
aI0
aI0
aa(lp2751
I0
aI2
aI4
aI0
aI2
aI2
aI2
aI0
aI2
aI0
aI0
aI0
aI0
aI0
aI2
aI0
aa(lp2752
I0
aI4
aI0
aI0
aI4
aI0
aI0
aI0
aI0
aI4
aI0
aI0
aI4
aI0
aI0
aI0
aa(lp2753
I0
aI0
aI0
aI0
aI2
aI0
aI4
aI2
aI2
aI2
aI0
aI0
aI0
aI2
aI0
aI2
aa(lp2754
I0
aI2
aI4
aI2
aI2
aI2
aI0
aI0
aI2
aI0
aI0
aI2
aI0
aI0
aI0
aI0
aa(lp2755
I0
aI2
aI0
aI0
aI2
aI0
aI0
aI4
aI0
aI2
aI4
aI0
aI2
aI0
aI0
aI0
aa(lp2756
I0
aI2
aI0
aI4
aI0
aI0
aI0
aI2
aI2
aI0
aI0
aI0
aI2
aI2
aI0
aI2
aa(lp2757
I0
aI0
aI0
aI2
aI0
aI4
aI2
aI0
aI0
aI0
aI0
aI2
aI0
aI4
aI2
aI0
aa(lp2758
I0
aI2
aI0
aI2
aI2
aI0
aI2
aI0
aI0
aI2
aI0
aI2
aI2
aI0
aI2
aI0
aa(lp2759
I0
aI0
aI4
aI2
aI0
aI2
aI0
aI0
aI2
aI2
aI0
aI2
aI2
aI0
aI0
aI0
aa(lp2760
I0
aI0
aI0
aI0
aI0
aI4
aI0
aI0
aI0
aI0
aI4
aI0
aI0
aI4
aI0
aI4
aa(lp2761
I0
aI0
aI0
aI0
aI2
aI0
aI0
aI2
aI2
aI2
aI0
aI4
aI0
aI2
aI0
aI2
aa(lp2762
I0
aI0
aI4
aI0
aI0
aI2
aI2
aI0
aI2
aI2
aI0
aI0
aI2
aI0
aI2
aI0
aa(lp2763
I0
aI0
aI0
aI2
aI0
aI0
aI2
aI4
aI0
aI0
aI4
aI2
aI0
aI0
aI2
aI0
aa(lp2764
I0
aI2
aI0
aI0
aI0
aI0
aI0
aI2
aI2
aI0
aI0
aI0
aI2
aI2
aI4
aI2
aa(lp2765
I0
aI0
aI0
aI2
aI0
aI0
aI2
aI0
aI0
aI0
aI4
aI2
aI0
aI0
aI2
aI4
aasS'sboxstate'
p2766
g227
sS'mixcolstate'
p2767
g526
sS'sboxstate2'
p2768
g184
sS'permstate'
p2769
g1693
sS'round'
p2770
I0
sba(iclusterfk.Probability
FullroundStep
p2771
(dp2772
g2748
g1332
sg2376
g2377
sS'P'
g2383
sg2353
g1905
sg2358
(lp2773
(lp2774
I16
aI0
aI0
aI0
aI0
aI0
aI0
aI0
aI0
aI0
aI0
aI0
aI0
aI0
aI0
aI0
aa(lp2775
I0
aI2
aI4
aI0
aI2
aI2
aI2
aI0
aI2
aI0
aI0
aI0
aI0
aI0
aI2
aI0
aa(lp2776
I0
aI4
aI0
aI0
aI4
aI0
aI0
aI0
aI0
aI4
aI0
aI0
aI4
aI0
aI0
aI0
aa(lp2777
I0
aI0
aI0
aI0
aI2
aI0
aI4
aI2
aI2
aI2
aI0
aI0
aI0
aI2
aI0
aI2
aa(lp2778
I0
aI2
aI4
aI2
aI2
aI2
aI0
aI0
aI2
aI0
aI0
aI2
aI0
aI0
aI0
aI0
aa(lp2779
I0
aI2
aI0
aI0
aI2
aI0
aI0
aI4
aI0
aI2
aI4
aI0
aI2
aI0
aI0
aI0
aa(lp2780
I0
aI2
aI0
aI4
aI0
aI0
aI0
aI2
aI2
aI0
aI0
aI0
aI2
aI2
aI0
aI2
aa(lp2781
I0
aI0
aI0
aI2
aI0
aI4
aI2
aI0
aI0
aI0
aI0
aI2
aI0
aI4
aI2
aI0
aa(lp2782
I0
aI2
aI0
aI2
aI2
aI0
aI2
aI0
aI0
aI2
aI0
aI2
aI2
aI0
aI2
aI0
aa(lp2783
I0
aI0
aI4
aI2
aI0
aI2
aI0
aI0
aI2
aI2
aI0
aI2
aI2
aI0
aI0
aI0
aa(lp2784
I0
aI0
aI0
aI0
aI0
aI4
aI0
aI0
aI0
aI0
aI4
aI0
aI0
aI4
aI0
aI4
aa(lp2785
I0
aI0
aI0
aI0
aI2
aI0
aI0
aI2
aI2
aI2
aI0
aI4
aI0
aI2
aI0
aI2
aa(lp2786
I0
aI0
aI4
aI0
aI0
aI2
aI2
aI0
aI2
aI2
aI0
aI0
aI2
aI0
aI2
aI0
aa(lp2787
I0
aI0
aI0
aI2
aI0
aI0
aI2
aI4
aI0
aI0
aI4
aI2
aI0
aI0
aI2
aI0
aa(lp2788
I0
aI2
aI0
aI0
aI0
aI0
aI0
aI2
aI2
aI0
aI0
aI0
aI2
aI2
aI4
aI2
aa(lp2789
I0
aI0
aI0
aI2
aI0
aI0
aI2
aI0
aI0
aI0
aI4
aI2
aI0
aI0
aI2
aI4
aasg2766
g184
sg2767
g607
sg2768
g141
sg2769
g1661
sg2770
I1
sba(iclusterfk.Probability
FullroundStep
p2790
(dp2791
g2748
g1289
sg2376
g2377
sS'P'
g2383
sg2353
g1948
sg2358
(lp2792
(lp2793
I16
aI0
aI0
aI0
aI0
aI0
aI0
aI0
aI0
aI0
aI0
aI0
aI0
aI0
aI0
aI0
aa(lp2794
I0
aI2
aI4
aI0
aI2
aI2
aI2
aI0
aI2
aI0
aI0
aI0
aI0
aI0
aI2
aI0
aa(lp2795
I0
aI4
aI0
aI0
aI4
aI0
aI0
aI0
aI0
aI4
aI0
aI0
aI4
aI0
aI0
aI0
aa(lp2796
I0
aI0
aI0
aI0
aI2
aI0
aI4
aI2
aI2
aI2
aI0
aI0
aI0
aI2
aI0
aI2
aa(lp2797
I0
aI2
aI4
aI2
aI2
aI2
aI0
aI0
aI2
aI0
aI0
aI2
aI0
aI0
aI0
aI0
aa(lp2798
I0
aI2
aI0
aI0
aI2
aI0
aI0
aI4
aI0
aI2
aI4
aI0
aI2
aI0
aI0
aI0
aa(lp2799
I0
aI2
aI0
aI4
aI0
aI0
aI0
aI2
aI2
aI0
aI0
aI0
aI2
aI2
aI0
aI2
aa(lp2800
I0
aI0
aI0
aI2
aI0
aI4
aI2
aI0
aI0
aI0
aI0
aI2
aI0
aI4
aI2
aI0
aa(lp2801
I0
aI2
aI0
aI2
aI2
aI0
aI2
aI0
aI0
aI2
aI0
aI2
aI2
aI0
aI2
aI0
aa(lp2802
I0
aI0
aI4
aI2
aI0
aI2
aI0
aI0
aI2
aI2
aI0
aI2
aI2
aI0
aI0
aI0
aa(lp2803
I0
aI0
aI0
aI0
aI0
aI4
aI0
aI0
aI0
aI0
aI4
aI0
aI0
aI4
aI0
aI4
aa(lp2804
I0
aI0
aI0
aI0
aI2
aI0
aI0
aI2
aI2
aI2
aI0
aI4
aI0
aI2
aI0
aI2
aa(lp2805
I0
aI0
aI4
aI0
aI0
aI2
aI2
aI0
aI2
aI2
aI0
aI0
aI2
aI0
aI2
aI0
aa(lp2806
I0
aI0
aI0
aI2
aI0
aI0
aI2
aI4
aI0
aI0
aI4
aI2
aI0
aI0
aI2
aI0
aa(lp2807
I0
aI2
aI0
aI0
aI0
aI0
aI0
aI2
aI2
aI0
aI0
aI0
aI2
aI2
aI4
aI2
aa(lp2808
I0
aI0
aI0
aI2
aI0
aI0
aI2
aI0
aI0
aI0
aI4
aI2
aI0
aI0
aI2
aI4
aasg2766
g141
sg2767
g565
sg2768
g98
sg2769
g1680
sg2770
I2
sba(iclusterfk.Probability
FullroundStep
p2809
(dp2810
g2748
g1418
sg2376
g2377
sS'P'
g2383
sg2353
g1835
sg2358
(lp2811
(lp2812
I16
aI0
aI0
aI0
aI0
aI0
aI0
aI0
aI0
aI0
aI0
aI0
aI0
aI0
aI0
aI0
aa(lp2813
I0
aI2
aI4
aI0
aI2
aI2
aI2
aI0
aI2
aI0
aI0
aI0
aI0
aI0
aI2
aI0
aa(lp2814
I0
aI4
aI0
aI0
aI4
aI0
aI0
aI0
aI0
aI4
aI0
aI0
aI4
aI0
aI0
aI0
aa(lp2815
I0
aI0
aI0
aI0
aI2
aI0
aI4
aI2
aI2
aI2
aI0
aI0
aI0
aI2
aI0
aI2
aa(lp2816
I0
aI2
aI4
aI2
aI2
aI2
aI0
aI0
aI2
aI0
aI0
aI2
aI0
aI0
aI0
aI0
aa(lp2817
I0
aI2
aI0
aI0
aI2
aI0
aI0
aI4
aI0
aI2
aI4
aI0
aI2
aI0
aI0
aI0
aa(lp2818
I0
aI2
aI0
aI4
aI0
aI0
aI0
aI2
aI2
aI0
aI0
aI0
aI2
aI2
aI0
aI2
aa(lp2819
I0
aI0
aI0
aI2
aI0
aI4
aI2
aI0
aI0
aI0
aI0
aI2
aI0
aI4
aI2
aI0
aa(lp2820
I0
aI2
aI0
aI2
aI2
aI0
aI2
aI0
aI0
aI2
aI0
aI2
aI2
aI0
aI2
aI0
aa(lp2821
I0
aI0
aI4
aI2
aI0
aI2
aI0
aI0
aI2
aI2
aI0
aI2
aI2
aI0
aI0
aI0
aa(lp2822
I0
aI0
aI0
aI0
aI0
aI4
aI0
aI0
aI0
aI0
aI4
aI0
aI0
aI4
aI0
aI4
aa(lp2823
I0
aI0
aI0
aI0
aI2
aI0
aI0
aI2
aI2
aI2
aI0
aI4
aI0
aI2
aI0
aI2
aa(lp2824
I0
aI0
aI4
aI0
aI0
aI2
aI2
aI0
aI2
aI2
aI0
aI0
aI2
aI0
aI2
aI0
aa(lp2825
I0
aI0
aI0
aI2
aI0
aI0
aI2
aI4
aI0
aI0
aI4
aI2
aI0
aI0
aI2
aI0
aa(lp2826
I0
aI2
aI0
aI0
aI0
aI0
aI0
aI2
aI2
aI0
aI0
aI0
aI2
aI2
aI4
aI2
aa(lp2827
I0
aI0
aI0
aI2
aI0
aI0
aI2
aI0
aI0
aI0
aI4
aI2
aI0
aI0
aI2
aI4
aasg2766
g98
sg2767
g442
sg2768
g356
sg2769
g1768
sg2770
I3
sba(iclusterfk.Probability
FullroundStep
p2828
(dp2829
g2748
g1375
sg2376
g2377
sS'P'
g2383
sg2353
g1878
sg2358
(lp2830
(lp2831
I16
aI0
aI0
aI0
aI0
aI0
aI0
aI0
aI0
aI0
aI0
aI0
aI0
aI0
aI0
aI0
aa(lp2832
I0
aI2
aI4
aI0
aI2
aI2
aI2
aI0
aI2
aI0
aI0
aI0
aI0
aI0
aI2
aI0
aa(lp2833
I0
aI4
aI0
aI0
aI4
aI0
aI0
aI0
aI0
aI4
aI0
aI0
aI4
aI0
aI0
aI0
aa(lp2834
I0
aI0
aI0
aI0
aI2
aI0
aI4
aI2
aI2
aI2
aI0
aI0
aI0
aI2
aI0
aI2
aa(lp2835
I0
aI2
aI4
aI2
aI2
aI2
aI0
aI0
aI2
aI0
aI0
aI2
aI0
aI0
aI0
aI0
aa(lp2836
I0
aI2
aI0
aI0
aI2
aI0
aI0
aI4
aI0
aI2
aI4
aI0
aI2
aI0
aI0
aI0
aa(lp2837
I0
aI2
aI0
aI4
aI0
aI0
aI0
aI2
aI2
aI0
aI0
aI0
aI2
aI2
aI0
aI2
aa(lp2838
I0
aI0
aI0
aI2
aI0
aI4
aI2
aI0
aI0
aI0
aI0
aI2
aI0
aI4
aI2
aI0
aa(lp2839
I0
aI2
aI0
aI2
aI2
aI0
aI2
aI0
aI0
aI2
aI0
aI2
aI2
aI0
aI2
aI0
aa(lp2840
I0
aI0
aI4
aI2
aI0
aI2
aI0
aI0
aI2
aI2
aI0
aI2
aI2
aI0
aI0
aI0
aa(lp2841
I0
aI0
aI0
aI0
aI0
aI4
aI0
aI0
aI0
aI0
aI4
aI0
aI0
aI4
aI0
aI4
aa(lp2842
I0
aI0
aI0
aI0
aI2
aI0
aI0
aI2
aI2
aI2
aI0
aI4
aI0
aI2
aI0
aI2
aa(lp2843
I0
aI0
aI4
aI0
aI0
aI2
aI2
aI0
aI2
aI2
aI0
aI0
aI2
aI0
aI2
aI0
aa(lp2844
I0
aI0
aI0
aI2
aI0
aI0
aI2
aI4
aI0
aI0
aI4
aI2
aI0
aI0
aI2
aI0
aa(lp2845
I0
aI2
aI0
aI0
aI0
aI0
aI0
aI2
aI2
aI0
aI0
aI0
aI2
aI2
aI4
aI2
aa(lp2846
I0
aI0
aI0
aI2
aI0
aI0
aI2
aI0
aI0
aI0
aI4
aI2
aI0
aI0
aI2
aI4
aasg2766
g356
sg2767
g399
sg2768
g313
sg2769
g1781
sg2770
I4
sba(iclusterfk.Probability
FullroundStep
p2847
(dp2848
g2748
g1503
sg2376
g2377
sS'P'
g2383
sg2353
g1792
sg2358
(lp2849
(lp2850
I16
aI0
aI0
aI0
aI0
aI0
aI0
aI0
aI0
aI0
aI0
aI0
aI0
aI0
aI0
aI0
aa(lp2851
I0
aI2
aI4
aI0
aI2
aI2
aI2
aI0
aI2
aI0
aI0
aI0
aI0
aI0
aI2
aI0
aa(lp2852
I0
aI4
aI0
aI0
aI4
aI0
aI0
aI0
aI0
aI4
aI0
aI0
aI4
aI0
aI0
aI0
aa(lp2853
I0
aI0
aI0
aI0
aI2
aI0
aI4
aI2
aI2
aI2
aI0
aI0
aI0
aI2
aI0
aI2
aa(lp2854
I0
aI2
aI4
aI2
aI2
aI2
aI0
aI0
aI2
aI0
aI0
aI2
aI0
aI0
aI0
aI0
aa(lp2855
I0
aI2
aI0
aI0
aI2
aI0
aI0
aI4
aI0
aI2
aI4
aI0
aI2
aI0
aI0
aI0
aa(lp2856
I0
aI2
aI0
aI4
aI0
aI0
aI0
aI2
aI2
aI0
aI0
aI0
aI2
aI2
aI0
aI2
aa(lp2857
I0
aI0
aI0
aI2
aI0
aI4
aI2
aI0
aI0
aI0
aI0
aI2
aI0
aI4
aI2
aI0
aa(lp2858
I0
aI2
aI0
aI2
aI2
aI0
aI2
aI0
aI0
aI2
aI0
aI2
aI2
aI0
aI2
aI0
aa(lp2859
I0
aI0
aI4
aI2
aI0
aI2
aI0
aI0
aI2
aI2
aI0
aI2
aI2
aI0
aI0
aI0
aa(lp2860
I0
aI0
aI0
aI0
aI0
aI4
aI0
aI0
aI0
aI0
aI4
aI0
aI0
aI4
aI0
aI4
aa(lp2861
I0
aI0
aI0
aI0
aI2
aI0
aI0
aI2
aI2
aI2
aI0
aI4
aI0
aI2
aI0
aI2
aa(lp2862
I0
aI0
aI4
aI0
aI0
aI2
aI2
aI0
aI2
aI2
aI0
aI0
aI2
aI0
aI2
aI0
aa(lp2863
I0
aI0
aI0
aI2
aI0
aI0
aI2
aI4
aI0
aI0
aI4
aI2
aI0
aI0
aI2
aI0
aa(lp2864
I0
aI2
aI0
aI0
aI0
aI0
aI0
aI2
aI2
aI0
aI0
aI0
aI2
aI2
aI4
aI2
aa(lp2865
I0
aI0
aI0
aI2
aI0
aI0
aI2
aI0
aI0
aI0
aI4
aI2
aI0
aI0
aI2
aI4
aasg2766
g313
sg2767
g484
sg2768
g270
sg2769
g1712
sg2770
I5
sba(iclusterfk.Probability
MantisInnerRoundStep
p2866
(dp2867
S'sboxstatein'
p2868
g270
sg2376
g2377
sg2358
(lp2869
(lp2870
I16
aI0
aI0
aI0
aI0
aI0
aI0
aI0
aI0
aI0
aI0
aI0
aI0
aI0
aI0
aI0
aa(lp2871
I0
aI2
aI4
aI0
aI2
aI2
aI2
aI0
aI2
aI0
aI0
aI0
aI0
aI0
aI2
aI0
aa(lp2872
I0
aI4
aI0
aI0
aI4
aI0
aI0
aI0
aI0
aI4
aI0
aI0
aI4
aI0
aI0
aI0
aa(lp2873
I0
aI0
aI0
aI0
aI2
aI0
aI4
aI2
aI2
aI2
aI0
aI0
aI0
aI2
aI0
aI2
aa(lp2874
I0
aI2
aI4
aI2
aI2
aI2
aI0
aI0
aI2
aI0
aI0
aI2
aI0
aI0
aI0
aI0
aa(lp2875
I0
aI2
aI0
aI0
aI2
aI0
aI0
aI4
aI0
aI2
aI4
aI0
aI2
aI0
aI0
aI0
aa(lp2876
I0
aI2
aI0
aI4
aI0
aI0
aI0
aI2
aI2
aI0
aI0
aI0
aI2
aI2
aI0
aI2
aa(lp2877
I0
aI0
aI0
aI2
aI0
aI4
aI2
aI0
aI0
aI0
aI0
aI2
aI0
aI4
aI2
aI0
aa(lp2878
I0
aI2
aI0
aI2
aI2
aI0
aI2
aI0
aI0
aI2
aI0
aI2
aI2
aI0
aI2
aI0
aa(lp2879
I0
aI0
aI4
aI2
aI0
aI2
aI0
aI0
aI2
aI2
aI0
aI2
aI2
aI0
aI0
aI0
aa(lp2880
I0
aI0
aI0
aI0
aI0
aI4
aI0
aI0
aI0
aI0
aI4
aI0
aI0
aI4
aI0
aI4
aa(lp2881
I0
aI0
aI0
aI0
aI2
aI0
aI0
aI2
aI2
aI2
aI0
aI4
aI0
aI2
aI0
aI2
aa(lp2882
I0
aI0
aI4
aI0
aI0
aI2
aI2
aI0
aI2
aI2
aI0
aI0
aI2
aI0
aI2
aI0
aa(lp2883
I0
aI0
aI0
aI2
aI0
aI0
aI2
aI4
aI0
aI0
aI4
aI2
aI0
aI0
aI2
aI0
aa(lp2884
I0
aI2
aI0
aI0
aI0
aI0
aI0
aI2
aI2
aI0
aI0
aI0
aI2
aI2
aI4
aI2
aa(lp2885
I0
aI0
aI0
aI2
aI0
aI0
aI2
aI0
aI0
aI0
aI4
aI2
aI0
aI0
aI2
aI4
aasS'sboxstateout'
p2886
g55
sS'mixcolstatein'
p2887
g1461
sS'mixcolstateout'
p2888
g2104
sba(iclusterfk.Probability
FullroundInverseStep
p2889
(dp2890
g2748
g1589
sg2376
g2377
sS'P'
g2383
sg2353
g1792
sg2358
(lp2891
(lp2892
I16
aI0
aI0
aI0
aI0
aI0
aI0
aI0
aI0
aI0
aI0
aI0
aI0
aI0
aI0
aI0
aa(lp2893
I0
aI2
aI4
aI0
aI2
aI2
aI2
aI0
aI2
aI0
aI0
aI0
aI0
aI0
aI2
aI0
aa(lp2894
I0
aI4
aI0
aI0
aI4
aI0
aI0
aI0
aI0
aI4
aI0
aI0
aI4
aI0
aI0
aI0
aa(lp2895
I0
aI0
aI0
aI0
aI2
aI0
aI4
aI2
aI2
aI2
aI0
aI0
aI0
aI2
aI0
aI2
aa(lp2896
I0
aI2
aI4
aI2
aI2
aI2
aI0
aI0
aI2
aI0
aI0
aI2
aI0
aI0
aI0
aI0
aa(lp2897
I0
aI2
aI0
aI0
aI2
aI0
aI0
aI4
aI0
aI2
aI4
aI0
aI2
aI0
aI0
aI0
aa(lp2898
I0
aI2
aI0
aI4
aI0
aI0
aI0
aI2
aI2
aI0
aI0
aI0
aI2
aI2
aI0
aI2
aa(lp2899
I0
aI0
aI0
aI2
aI0
aI4
aI2
aI0
aI0
aI0
aI0
aI2
aI0
aI4
aI2
aI0
aa(lp2900
I0
aI2
aI0
aI2
aI2
aI0
aI2
aI0
aI0
aI2
aI0
aI2
aI2
aI0
aI2
aI0
aa(lp2901
I0
aI0
aI4
aI2
aI0
aI2
aI0
aI0
aI2
aI2
aI0
aI2
aI2
aI0
aI0
aI0
aa(lp2902
I0
aI0
aI0
aI0
aI0
aI4
aI0
aI0
aI0
aI0
aI4
aI0
aI0
aI4
aI0
aI4
aa(lp2903
I0
aI0
aI0
aI0
aI2
aI0
aI0
aI2
aI2
aI2
aI0
aI4
aI0
aI2
aI0
aI2
aa(lp2904
I0
aI0
aI4
aI0
aI0
aI2
aI2
aI0
aI2
aI2
aI0
aI0
aI2
aI0
aI2
aI0
aa(lp2905
I0
aI0
aI0
aI2
aI0
aI0
aI2
aI4
aI0
aI0
aI4
aI2
aI0
aI0
aI2
aI0
aa(lp2906
I0
aI2
aI0
aI0
aI0
aI0
aI0
aI2
aI2
aI0
aI0
aI0
aI2
aI2
aI4
aI2
aa(lp2907
I0
aI0
aI0
aI2
aI0
aI0
aI2
aI0
aI0
aI0
aI4
aI2
aI0
aI0
aI2
aI4
aasg2766
g55
sg2767
g688
sg2768
g6
sg2769
g1632
sg2770
I8
sba(iclusterfk.Probability
FullroundInverseStep
p2908
(dp2909
g2748
g1546
sg2376
g2377
sS'P'
g2383
sg2353
g1878
sg2358
(lp2910
(lp2911
I16
aI0
aI0
aI0
aI0
aI0
aI0
aI0
aI0
aI0
aI0
aI0
aI0
aI0
aI0
aI0
aa(lp2912
I0
aI2
aI4
aI0
aI2
aI2
aI2
aI0
aI2
aI0
aI0
aI0
aI0
aI0
aI2
aI0
aa(lp2913
I0
aI4
aI0
aI0
aI4
aI0
aI0
aI0
aI0
aI4
aI0
aI0
aI4
aI0
aI0
aI0
aa(lp2914
I0
aI0
aI0
aI0
aI2
aI0
aI4
aI2
aI2
aI2
aI0
aI0
aI0
aI2
aI0
aI2
aa(lp2915
I0
aI2
aI4
aI2
aI2
aI2
aI0
aI0
aI2
aI0
aI0
aI2
aI0
aI0
aI0
aI0
aa(lp2916
I0
aI2
aI0
aI0
aI2
aI0
aI0
aI4
aI0
aI2
aI4
aI0
aI2
aI0
aI0
aI0
aa(lp2917
I0
aI2
aI0
aI4
aI0
aI0
aI0
aI2
aI2
aI0
aI0
aI0
aI2
aI2
aI0
aI2
aa(lp2918
I0
aI0
aI0
aI2
aI0
aI4
aI2
aI0
aI0
aI0
aI0
aI2
aI0
aI4
aI2
aI0
aa(lp2919
I0
aI2
aI0
aI2
aI2
aI0
aI2
aI0
aI0
aI2
aI0
aI2
aI2
aI0
aI2
aI0
aa(lp2920
I0
aI0
aI4
aI2
aI0
aI2
aI0
aI0
aI2
aI2
aI0
aI2
aI2
aI0
aI0
aI0
aa(lp2921
I0
aI0
aI0
aI0
aI0
aI4
aI0
aI0
aI0
aI0
aI4
aI0
aI0
aI4
aI0
aI4
aa(lp2922
I0
aI0
aI0
aI0
aI2
aI0
aI0
aI2
aI2
aI2
aI0
aI4
aI0
aI2
aI0
aI2
aa(lp2923
I0
aI0
aI4
aI0
aI0
aI2
aI2
aI0
aI2
aI2
aI0
aI0
aI2
aI0
aI2
aI0
aa(lp2924
I0
aI0
aI0
aI2
aI0
aI0
aI2
aI4
aI0
aI0
aI4
aI2
aI0
aI0
aI2
aI0
aa(lp2925
I0
aI2
aI0
aI0
aI0
aI0
aI0
aI2
aI2
aI0
aI0
aI0
aI2
aI2
aI4
aI2
aa(lp2926
I0
aI0
aI0
aI2
aI0
aI0
aI2
aI0
aI0
aI0
aI4
aI2
aI0
aI0
aI2
aI4
aasg2766
g6
sg2767
g645
sg2768
g1074
sg2769
g2077
sg2770
I9
sba(iclusterfk.Probability
FullroundInverseStep
p2927
(dp2928
g2748
g816
sg2376
g2377
sS'P'
g2383
sg2353
g1835
sg2358
(lp2929
(lp2930
I16
aI0
aI0
aI0
aI0
aI0
aI0
aI0
aI0
aI0
aI0
aI0
aI0
aI0
aI0
aI0
aa(lp2931
I0
aI2
aI4
aI0
aI2
aI2
aI2
aI0
aI2
aI0
aI0
aI0
aI0
aI0
aI2
aI0
aa(lp2932
I0
aI4
aI0
aI0
aI4
aI0
aI0
aI0
aI0
aI4
aI0
aI0
aI4
aI0
aI0
aI0
aa(lp2933
I0
aI0
aI0
aI0
aI2
aI0
aI4
aI2
aI2
aI2
aI0
aI0
aI0
aI2
aI0
aI2
aa(lp2934
I0
aI2
aI4
aI2
aI2
aI2
aI0
aI0
aI2
aI0
aI0
aI2
aI0
aI0
aI0
aI0
aa(lp2935
I0
aI2
aI0
aI0
aI2
aI0
aI0
aI4
aI0
aI2
aI4
aI0
aI2
aI0
aI0
aI0
aa(lp2936
I0
aI2
aI0
aI4
aI0
aI0
aI0
aI2
aI2
aI0
aI0
aI0
aI2
aI2
aI0
aI2
aa(lp2937
I0
aI0
aI0
aI2
aI0
aI4
aI2
aI0
aI0
aI0
aI0
aI2
aI0
aI4
aI2
aI0
aa(lp2938
I0
aI2
aI0
aI2
aI2
aI0
aI2
aI0
aI0
aI2
aI0
aI2
aI2
aI0
aI2
aI0
aa(lp2939
I0
aI0
aI4
aI2
aI0
aI2
aI0
aI0
aI2
aI2
aI0
aI2
aI2
aI0
aI0
aI0
aa(lp2940
I0
aI0
aI0
aI0
aI0
aI4
aI0
aI0
aI0
aI0
aI4
aI0
aI0
aI4
aI0
aI4
aa(lp2941
I0
aI0
aI0
aI0
aI2
aI0
aI0
aI2
aI2
aI2
aI0
aI4
aI0
aI2
aI0
aI2
aa(lp2942
I0
aI0
aI4
aI0
aI0
aI2
aI2
aI0
aI2
aI2
aI0
aI0
aI2
aI0
aI2
aI0
aa(lp2943
I0
aI0
aI0
aI2
aI0
aI0
aI2
aI4
aI0
aI0
aI4
aI2
aI0
aI0
aI2
aI0
aa(lp2944
I0
aI2
aI0
aI0
aI0
aI0
aI0
aI2
aI2
aI0
aI0
aI0
aI2
aI2
aI4
aI2
aa(lp2945
I0
aI0
aI0
aI2
aI0
aI0
aI2
aI0
aI0
aI0
aI4
aI2
aI0
aI0
aI2
aI4
aasg2766
g1074
sg2767
g2261
sg2768
g1031
sg2769
g730
sg2770
I10
sba(iclusterfk.Probability
FullroundInverseStep
p2946
(dp2947
g2748
g773
sg2376
g2377
sS'P'
g2383
sg2353
g1948
sg2358
(lp2948
(lp2949
I16
aI0
aI0
aI0
aI0
aI0
aI0
aI0
aI0
aI0
aI0
aI0
aI0
aI0
aI0
aI0
aa(lp2950
I0
aI2
aI4
aI0
aI2
aI2
aI2
aI0
aI2
aI0
aI0
aI0
aI0
aI0
aI2
aI0
aa(lp2951
I0
aI4
aI0
aI0
aI4
aI0
aI0
aI0
aI0
aI4
aI0
aI0
aI4
aI0
aI0
aI0
aa(lp2952
I0
aI0
aI0
aI0
aI2
aI0
aI4
aI2
aI2
aI2
aI0
aI0
aI0
aI2
aI0
aI2
aa(lp2953
I0
aI2
aI4
aI2
aI2
aI2
aI0
aI0
aI2
aI0
aI0
aI2
aI0
aI0
aI0
aI0
aa(lp2954
I0
aI2
aI0
aI0
aI2
aI0
aI0
aI4
aI0
aI2
aI4
aI0
aI2
aI0
aI0
aI0
aa(lp2955
I0
aI2
aI0
aI4
aI0
aI0
aI0
aI2
aI2
aI0
aI0
aI0
aI2
aI2
aI0
aI2
aa(lp2956
I0
aI0
aI0
aI2
aI0
aI4
aI2
aI0
aI0
aI0
aI0
aI2
aI0
aI4
aI2
aI0
aa(lp2957
I0
aI2
aI0
aI2
aI2
aI0
aI2
aI0
aI0
aI2
aI0
aI2
aI2
aI0
aI2
aI0
aa(lp2958
I0
aI0
aI4
aI2
aI0
aI2
aI0
aI0
aI2
aI2
aI0
aI2
aI2
aI0
aI0
aI0
aa(lp2959
I0
aI0
aI0
aI0
aI0
aI4
aI0
aI0
aI0
aI0
aI4
aI0
aI0
aI4
aI0
aI4
aa(lp2960
I0
aI0
aI0
aI0
aI2
aI0
aI0
aI2
aI2
aI2
aI0
aI4
aI0
aI2
aI0
aI2
aa(lp2961
I0
aI0
aI4
aI0
aI0
aI2
aI2
aI0
aI2
aI2
aI0
aI0
aI2
aI0
aI2
aI0
aa(lp2962
I0
aI0
aI0
aI2
aI0
aI0
aI2
aI4
aI0
aI0
aI4
aI2
aI0
aI0
aI2
aI0
aa(lp2963
I0
aI2
aI0
aI0
aI0
aI0
aI0
aI2
aI2
aI0
aI0
aI0
aI2
aI2
aI4
aI2
aa(lp2964
I0
aI0
aI0
aI2
aI0
aI0
aI2
aI0
aI0
aI0
aI4
aI2
aI0
aI0
aI2
aI4
aasg2766
g1031
sg2767
g2233
sg2768
g988
sg2769
g902
sg2770
I11
sba(iclusterfk.Probability
FullroundInverseStep
p2965
(dp2966
g2748
g2190
sg2376
g2377
sS'P'
g2383
sg2353
g1905
sg2358
(lp2967
(lp2968
I16
aI0
aI0
aI0
aI0
aI0
aI0
aI0
aI0
aI0
aI0
aI0
aI0
aI0
aI0
aI0
aa(lp2969
I0
aI2
aI4
aI0
aI2
aI2
aI2
aI0
aI2
aI0
aI0
aI0
aI0
aI0
aI2
aI0
aa(lp2970
I0
aI4
aI0
aI0
aI4
aI0
aI0
aI0
aI0
aI4
aI0
aI0
aI4
aI0
aI0
aI0
aa(lp2971
I0
aI0
aI0
aI0
aI2
aI0
aI4
aI2
aI2
aI2
aI0
aI0
aI0
aI2
aI0
aI2
aa(lp2972
I0
aI2
aI4
aI2
aI2
aI2
aI0
aI0
aI2
aI0
aI0
aI2
aI0
aI0
aI0
aI0
aa(lp2973
I0
aI2
aI0
aI0
aI2
aI0
aI0
aI4
aI0
aI2
aI4
aI0
aI2
aI0
aI0
aI0
aa(lp2974
I0
aI2
aI0
aI4
aI0
aI0
aI0
aI2
aI2
aI0
aI0
aI0
aI2
aI2
aI0
aI2
aa(lp2975
I0
aI0
aI0
aI2
aI0
aI4
aI2
aI0
aI0
aI0
aI0
aI2
aI0
aI4
aI2
aI0
aa(lp2976
I0
aI2
aI0
aI2
aI2
aI0
aI2
aI0
aI0
aI2
aI0
aI2
aI2
aI0
aI2
aI0
aa(lp2977
I0
aI0
aI4
aI2
aI0
aI2
aI0
aI0
aI2
aI2
aI0
aI2
aI2
aI0
aI0
aI0
aa(lp2978
I0
aI0
aI0
aI0
aI0
aI4
aI0
aI0
aI0
aI0
aI4
aI0
aI0
aI4
aI0
aI4
aa(lp2979
I0
aI0
aI0
aI0
aI2
aI0
aI0
aI2
aI2
aI2
aI0
aI4
aI0
aI2
aI0
aI2
aa(lp2980
I0
aI0
aI4
aI0
aI0
aI2
aI2
aI0
aI2
aI2
aI0
aI0
aI2
aI0
aI2
aI0
aa(lp2981
I0
aI0
aI0
aI2
aI0
aI0
aI2
aI4
aI0
aI0
aI4
aI2
aI0
aI0
aI2
aI0
aa(lp2982
I0
aI2
aI0
aI0
aI0
aI0
aI0
aI2
aI2
aI0
aI0
aI0
aI2
aI2
aI4
aI2
aa(lp2983
I0
aI0
aI0
aI2
aI0
aI0
aI2
aI0
aI0
aI0
aI4
aI2
aI0
aI0
aI2
aI4
aasg2766
g988
sg2767
g2320
sg2768
g945
sg2769
g1117
sg2770
I12
sba(iclusterfk.Probability
FullroundInverseStep
p2984
(dp2985
g2748
g859
sg2376
g2377
sS'P'
g2383
sg2353
g2034
sg2358
(lp2986
(lp2987
I16
aI0
aI0
aI0
aI0
aI0
aI0
aI0
aI0
aI0
aI0
aI0
aI0
aI0
aI0
aI0
aa(lp2988
I0
aI2
aI4
aI0
aI2
aI2
aI2
aI0
aI2
aI0
aI0
aI0
aI0
aI0
aI2
aI0
aa(lp2989
I0
aI4
aI0
aI0
aI4
aI0
aI0
aI0
aI0
aI4
aI0
aI0
aI4
aI0
aI0
aI0
aa(lp2990
I0
aI0
aI0
aI0
aI2
aI0
aI4
aI2
aI2
aI2
aI0
aI0
aI0
aI2
aI0
aI2
aa(lp2991
I0
aI2
aI4
aI2
aI2
aI2
aI0
aI0
aI2
aI0
aI0
aI2
aI0
aI0
aI0
aI0
aa(lp2992
I0
aI2
aI0
aI0
aI2
aI0
aI0
aI4
aI0
aI2
aI4
aI0
aI2
aI0
aI0
aI0
aa(lp2993
I0
aI2
aI0
aI4
aI0
aI0
aI0
aI2
aI2
aI0
aI0
aI0
aI2
aI2
aI0
aI2
aa(lp2994
I0
aI0
aI0
aI2
aI0
aI4
aI2
aI0
aI0
aI0
aI0
aI2
aI0
aI4
aI2
aI0
aa(lp2995
I0
aI2
aI0
aI2
aI2
aI0
aI2
aI0
aI0
aI2
aI0
aI2
aI2
aI0
aI2
aI0
aa(lp2996
I0
aI0
aI4
aI2
aI0
aI2
aI0
aI0
aI2
aI2
aI0
aI2
aI2
aI0
aI0
aI0
aa(lp2997
I0
aI0
aI0
aI0
aI0
aI4
aI0
aI0
aI0
aI0
aI4
aI0
aI0
aI4
aI0
aI4
aa(lp2998
I0
aI0
aI0
aI0
aI2
aI0
aI0
aI2
aI2
aI2
aI0
aI4
aI0
aI2
aI0
aI2
aa(lp2999
I0
aI0
aI4
aI0
aI0
aI2
aI2
aI0
aI2
aI2
aI0
aI0
aI2
aI0
aI2
aI0
aa(lp3000
I0
aI0
aI0
aI2
aI0
aI0
aI2
aI4
aI0
aI0
aI4
aI2
aI0
aI0
aI2
aI0
aa(lp3001
I0
aI2
aI0
aI0
aI0
aI0
aI0
aI2
aI2
aI0
aI0
aI0
aI2
aI2
aI4
aI2
aa(lp3002
I0
aI0
aI0
aI2
aI0
aI0
aI2
aI0
aI0
aI0
aI4
aI2
aI0
aI0
aI2
aI4
aasg2766
g945
sg2767
g2289
sg2768
g1160
sg2769
g1725
sg2770
I13
sbasb.